
========================================================================

** ELF Header Information

    File Name: .\Objects\Secure.axf

    Machine class: ELFCLASS32 (32-bit)
    Data encoding: ELFDATA2LSB (Little endian)
    Header version: EV_CURRENT (Current version)
    Operating System ABI: none
    ABI Version: 0
    File Type: ET_EXEC (Executable) (2)
    Machine: EM_ARM (ARM)

    Image Entry point: 0x000001d9
    Flags: EF_ARM_HASENTRY + EF_ARM_ABI_FLOAT_SOFT (0x05000202)

    ARM ELF revision: 5 (ABI version 2)

    Conforms to Soft float procedure-call standard

    Built with
    Component: ARM Compiler 6.15 Tool: armasm [5dd78d00]
    Component: ARM Compiler 6.15 Tool: armlink [5dd79300]

    Header size: 52 bytes (0x34)
    Program header entry size: 32 bytes (0x20)
    Section header entry size: 40 bytes (0x28)

    Program header entries: 3
    Section header entries: 18

    Program header offset: 72116 (0x000119b4)
    Section header offset: 72212 (0x00011a14)

    Section header string table index: 17

========================================================================

** Program header #0 (PT_LOAD) [PF_X + PF_W + PF_R + PF_ARM_ENTRY]
    Size : 16400 bytes (12008 bytes in file)
    Virtual address: 0x00000000 (Alignment 32)


====================================

** Program header #1 (PT_LOAD) [PF_X]
    Size : 12 bytes
    Virtual address: 0x00008000 (Alignment 4)


====================================

** Program header #2 (PT_LOAD) [PF_X]
    Size : 12 bytes
    Virtual address: 0x00009000 (Alignment 4)


========================================================================

** Section #1 'EXE_ROM' (SHT_PROGBITS) [SHF_ALLOC + SHF_EXECINSTR]
    Size   : 11404 bytes (alignment 4)
    Address: 0x00000000

    $d.realdata
    RESET
    __Vectors
        0x00000000:    200012f0    ...     DCD    536875760
        0x00000004:    000001ed    ....    DCD    493
        0x00000008:    000001f5    ....    DCD    501
        0x0000000c:    000001f7    ....    DCD    503
        0x00000010:    00000000    ....    DCD    0
        0x00000014:    00000000    ....    DCD    0
        0x00000018:    00000000    ....    DCD    0
        0x0000001c:    00000000    ....    DCD    0
        0x00000020:    00000000    ....    DCD    0
        0x00000024:    00000000    ....    DCD    0
        0x00000028:    00000000    ....    DCD    0
        0x0000002c:    00000207    ....    DCD    519
        0x00000030:    00000000    ....    DCD    0
        0x00000034:    00000000    ....    DCD    0
        0x00000038:    00000209    ....    DCD    521
        0x0000003c:    00001a71    q...    DCD    6769
        0x00000040:    0000020d    ....    DCD    525
        0x00000044:    0000020d    ....    DCD    525
        0x00000048:    0000020d    ....    DCD    525
        0x0000004c:    0000020d    ....    DCD    525
        0x00000050:    0000020d    ....    DCD    525
        0x00000054:    0000020d    ....    DCD    525
        0x00000058:    0000020d    ....    DCD    525
        0x0000005c:    0000020d    ....    DCD    525
        0x00000060:    0000020d    ....    DCD    525
        0x00000064:    0000020d    ....    DCD    525
        0x00000068:    0000020d    ....    DCD    525
        0x0000006c:    0000020d    ....    DCD    525
        0x00000070:    0000020d    ....    DCD    525
        0x00000074:    0000020d    ....    DCD    525
        0x00000078:    0000020d    ....    DCD    525
        0x0000007c:    0000020d    ....    DCD    525
        0x00000080:    0000020d    ....    DCD    525
        0x00000084:    0000020d    ....    DCD    525
        0x00000088:    0000020d    ....    DCD    525
        0x0000008c:    0000020d    ....    DCD    525
        0x00000090:    0000020d    ....    DCD    525
        0x00000094:    0000020d    ....    DCD    525
        0x00000098:    0000020d    ....    DCD    525
        0x0000009c:    0000020d    ....    DCD    525
        0x000000a0:    0000020d    ....    DCD    525
        0x000000a4:    0000020d    ....    DCD    525
        0x000000a8:    0000020d    ....    DCD    525
        0x000000ac:    0000020d    ....    DCD    525
        0x000000b0:    0000020d    ....    DCD    525
        0x000000b4:    0000020d    ....    DCD    525
        0x000000b8:    0000020d    ....    DCD    525
        0x000000bc:    0000020d    ....    DCD    525
        0x000000c0:    0000020d    ....    DCD    525
        0x000000c4:    0000020d    ....    DCD    525
        0x000000c8:    0000020d    ....    DCD    525
        0x000000cc:    0000020d    ....    DCD    525
        0x000000d0:    0000020d    ....    DCD    525
        0x000000d4:    0000020d    ....    DCD    525
        0x000000d8:    0000020d    ....    DCD    525
        0x000000dc:    0000020d    ....    DCD    525
        0x000000e0:    0000020d    ....    DCD    525
        0x000000e4:    0000020d    ....    DCD    525
        0x000000e8:    0000020d    ....    DCD    525
        0x000000ec:    0000020d    ....    DCD    525
        0x000000f0:    0000020d    ....    DCD    525
        0x000000f4:    0000020d    ....    DCD    525
        0x000000f8:    0000020d    ....    DCD    525
        0x000000fc:    0000020d    ....    DCD    525
        0x00000100:    0000020d    ....    DCD    525
        0x00000104:    0000020d    ....    DCD    525
        0x00000108:    0000020d    ....    DCD    525
        0x0000010c:    0000020d    ....    DCD    525
        0x00000110:    0000020d    ....    DCD    525
        0x00000114:    0000020d    ....    DCD    525
        0x00000118:    0000020d    ....    DCD    525
        0x0000011c:    0000020d    ....    DCD    525
        0x00000120:    0000020d    ....    DCD    525
        0x00000124:    0000020d    ....    DCD    525
        0x00000128:    0000020d    ....    DCD    525
        0x0000012c:    0000020d    ....    DCD    525
        0x00000130:    0000020d    ....    DCD    525
        0x00000134:    0000020d    ....    DCD    525
        0x00000138:    0000020d    ....    DCD    525
        0x0000013c:    0000020d    ....    DCD    525
        0x00000140:    0000020d    ....    DCD    525
        0x00000144:    0000020d    ....    DCD    525
        0x00000148:    0000020d    ....    DCD    525
        0x0000014c:    0000020d    ....    DCD    525
        0x00000150:    0000020d    ....    DCD    525
        0x00000154:    0000020d    ....    DCD    525
        0x00000158:    0000020d    ....    DCD    525
        0x0000015c:    0000020d    ....    DCD    525
        0x00000160:    0000020d    ....    DCD    525
        0x00000164:    0000020d    ....    DCD    525
        0x00000168:    0000020d    ....    DCD    525
        0x0000016c:    0000020d    ....    DCD    525
        0x00000170:    0000020d    ....    DCD    525
        0x00000174:    0000020d    ....    DCD    525
        0x00000178:    0000020d    ....    DCD    525
        0x0000017c:    0000020d    ....    DCD    525
        0x00000180:    0000020d    ....    DCD    525
        0x00000184:    0000020d    ....    DCD    525
        0x00000188:    0000020d    ....    DCD    525
        0x0000018c:    0000020d    ....    DCD    525
        0x00000190:    0000020d    ....    DCD    525
        0x00000194:    0000020d    ....    DCD    525
        0x00000198:    0000020d    ....    DCD    525
        0x0000019c:    0000020d    ....    DCD    525
        0x000001a0:    0000020d    ....    DCD    525
        0x000001a4:    0000020d    ....    DCD    525
        0x000001a8:    0000020d    ....    DCD    525
        0x000001ac:    0000020d    ....    DCD    525
        0x000001b0:    0000020d    ....    DCD    525
        0x000001b4:    0000020d    ....    DCD    525
        0x000001b8:    0000020d    ....    DCD    525
        0x000001bc:    0000020d    ....    DCD    525
        0x000001c0:    0000020d    ....    DCD    525
        0x000001c4:    0000020d    ....    DCD    525
        0x000001c8:    0000020d    ....    DCD    525
        0x000001cc:    00001639    9...    DCD    5689
        0x000001d0:    0000020d    ....    DCD    525
        0x000001d4:    0000020d    ....    DCD    525
    $t
    .ARM.Collect$$$$00000000
    .ARM.Collect$$$$00000001
    __Vectors_End
    __main
    _main_stk
        0x000001d8:    4803        .H      LDR      r0,__lit__00000000 ; [0x1e8] = 0x200012f0
        0x000001da:    4685        .F      MOV      sp,r0
    .ARM.Collect$$$$00000004
    _main_scatterload
        0x000001dc:    f000fa42    ..B.    BL       __scatterload ; 0x664
    .ARM.Collect$$$$00000008
    .ARM.Collect$$$$0000000A
    .ARM.Collect$$$$0000000B
    __main_after_scatterload
    _main_clock
    _main_cpp_init
    _main_init
        0x000001e0:    4800        .H      LDR      r0,[pc,#0] ; [0x1e4] = 0x1d29
        0x000001e2:    4700        .G      BX       r0
    $d
        0x000001e4:    00001d29    )...    DCD    7465
    .ARM.Collect$$$$00002712
    __lit__00000000
    .ARM.Collect$$$$0000000D
    .ARM.Collect$$$$0000000F
    __rt_final_cpp
    __rt_final_exit
        0x000001e8:    200012f0    ...     DCD    536875760
    $t
    .text
    Reset_Handler
        0x000001ec:    480c        .H      LDR      r0,[pc,#48] ; [0x220] = 0x1bb5
        0x000001ee:    4780        .G      BLX      r0
        0x000001f0:    480c        .H      LDR      r0,[pc,#48] ; [0x224] = 0x1d9
        0x000001f2:    4700        .G      BX       r0
    NMI_Handler
        0x000001f4:    e7fe        ..      B        NMI_Handler ; 0x1f4
    HardFault_Handler
        0x000001f6:    4670        pF      MOV      r0,lr
        0x000001f8:    f3ef8108    ....    MRS      r1,MSP
        0x000001fc:    f3ef8209    ....    MRS      r2,PSP
        0x00000200:    4b09        .K      LDR      r3,[pc,#36] ; [0x228] = 0xf99
        0x00000202:    4798        .G      BLX      r3
        0x00000204:    4700        .G      BX       r0
    SVC_Handler
        0x00000206:    e7fe        ..      B        SVC_Handler ; 0x206
    PendSV_Handler
        0x00000208:    e7fe        ..      B        PendSV_Handler ; 0x208
        0x0000020a:    e7fe        ..      B        0x20a ; PendSV_Handler + 2
    ACMP01_IRQHandler
    BOD_IRQHandler
    BPWM0_IRQHandler
    BPWM1_IRQHandler
    BRAKE0_IRQHandler
    BRAKE1_IRQHandler
    CAN0_IRQHandler
    CAN1_IRQHandler
    CLKFAIL_IRQHandler
    CRPT_IRQHandler
    DAC_IRQHandler
    DEFAULT_IRQHandler
    EADC0_IRQHandler
    EADC1_IRQHandler
    EADC2_IRQHandler
    EADC3_IRQHandler
    ECAP0_IRQHandler
    ECAP1_IRQHandler
    EINT0_IRQHandler
    EINT1_IRQHandler
    EINT2_IRQHandler
    EINT3_IRQHandler
    EINT4_IRQHandler
    EINT5_IRQHandler
    EINT6_IRQHandler
    EINT7_IRQHandler
    EPWM0_P0_IRQHandler
    EPWM0_P1_IRQHandler
    EPWM0_P2_IRQHandler
    EPWM1_P0_IRQHandler
    EPWM1_P1_IRQHandler
    EPWM1_P2_IRQHandler
    GPA_IRQHandler
    GPB_IRQHandler
    GPC_IRQHandler
    GPD_IRQHandler
    GPE_IRQHandler
    GPF_IRQHandler
    GPG_IRQHandler
    GPH_IRQHandler
    I2C0_IRQHandler
    I2C1_IRQHandler
    I2C2_IRQHandler
    I2S0_IRQHandler
    IRC_IRQHandler
    OPA0_IRQHandler
    PDMA0_IRQHandler
    PDMA1_IRQHandler
    PWRWU_IRQHandler
    QEI0_IRQHandler
    QEI1_IRQHandler
    QSPI0_IRQHandler
    RTC_IRQHandler
    SC0_IRQHandler
    SC1_IRQHandler
    SC2_IRQHandler
    SC3_IRQHandler
    SDH0_IRQHandler
    SDH1_IRQHandler
    SPI0_IRQHandler
    SPI1_IRQHandler
    SPI2_IRQHandler
    SPI3_IRQHandler
    SRAM_IRQHandler
    TAMPER_IRQHandler
    TMR0_IRQHandler
    TMR1_IRQHandler
    TMR2_IRQHandler
    TMR3_IRQHandler
    TRNG_IRQHandler
    UART0_IRQHandler
    UART1_IRQHandler
    UART2_IRQHandler
    UART3_IRQHandler
    UART4_IRQHandler
    UART5_IRQHandler
    USBD_IRQHandler
    USBH_IRQHandler
    USBOTG_IRQHandler
    USCI0_IRQHandler
    USCI1_IRQHandler
    WDT_IRQHandler
    WWDT_IRQHandler
        0x0000020c:    e7fe        ..      B        ACMP01_IRQHandler ; 0x20c
    $d
        0x0000020e:    0000        ..      DCW    0
    $t
    SH_DoCommand
        0x00000210:    beab        ..      BKPT     #0xab
        0x00000212:    4b06        .K      LDR      r3,[pc,#24] ; [0x22c] = 0x17c1
        0x00000214:    4674        tF      MOV      r4,lr
        0x00000216:    4798        .G      BLX      r3
        0x00000218:    4720         G      BX       r4
    __PC
        0x0000021a:    4670        pF      MOV      r0,lr
        0x0000021c:    47f0        .G      BLX      lr
    $d
        0x0000021e:    0000        ..      DCW    0
        0x00000220:    00001bb5    ....    DCD    7093
        0x00000224:    000001d9    ....    DCD    473
        0x00000228:    00000f99    ....    DCD    3993
        0x0000022c:    000017c1    ....    DCD    6081
    $t
    .text
    __aeabi_memcpy
    __aeabi_memcpy4
    __aeabi_memcpy8
        0x00000230:    4603        .F      MOV      r3,r0
        0x00000232:    430b        .C      ORRS     r3,r3,r1
        0x00000234:    079b        ..      LSLS     r3,r3,#30
        0x00000236:    d003        ..      BEQ      0x240 ; __aeabi_memcpy + 16
        0x00000238:    e009        ..      B        0x24e ; __aeabi_memcpy + 30
        0x0000023a:    c908        ..      LDM      r1!,{r3}
        0x0000023c:    1f12        ..      SUBS     r2,r2,#4
        0x0000023e:    c008        ..      STM      r0!,{r3}
        0x00000240:    2a04        .*      CMP      r2,#4
        0x00000242:    d2fa        ..      BCS      0x23a ; __aeabi_memcpy + 10
        0x00000244:    e003        ..      B        0x24e ; __aeabi_memcpy + 30
        0x00000246:    780b        .x      LDRB     r3,[r1,#0]
        0x00000248:    7003        .p      STRB     r3,[r0,#0]
        0x0000024a:    1c40        @.      ADDS     r0,r0,#1
        0x0000024c:    1c49        I.      ADDS     r1,r1,#1
        0x0000024e:    1e52        R.      SUBS     r2,r2,#1
        0x00000250:    d2f9        ..      BCS      0x246 ; __aeabi_memcpy + 22
        0x00000252:    4770        pG      BX       lr
    .text
    __aeabi_memset
    __aeabi_memset4
    __aeabi_memset8
        0x00000254:    b2d2        ..      UXTB     r2,r2
        0x00000256:    e001        ..      B        0x25c ; __aeabi_memset + 8
        0x00000258:    7002        .p      STRB     r2,[r0,#0]
        0x0000025a:    1c40        @.      ADDS     r0,r0,#1
        0x0000025c:    1e49        I.      SUBS     r1,r1,#1
        0x0000025e:    d2fb        ..      BCS      0x258 ; __aeabi_memset + 4
        0x00000260:    4770        pG      BX       lr
    __aeabi_memclr
    __aeabi_memclr4
    __aeabi_memclr8
        0x00000262:    2200        ."      MOVS     r2,#0
        0x00000264:    e7f6        ..      B        __aeabi_memset ; 0x254
    _memset$wrapper
        0x00000266:    b510        ..      PUSH     {r4,lr}
        0x00000268:    4613        .F      MOV      r3,r2
        0x0000026a:    460a        .F      MOV      r2,r1
        0x0000026c:    4604        .F      MOV      r4,r0
        0x0000026e:    4619        .F      MOV      r1,r3
        0x00000270:    f7fffff0    ....    BL       __aeabi_memset ; 0x254
        0x00000274:    4620         F      MOV      r0,r4
        0x00000276:    bd10        ..      POP      {r4,pc}
    .text
    __aeabi_uldivmod
        0x00000278:    b5f0        ..      PUSH     {r4-r7,lr}
        0x0000027a:    b41f        ..      PUSH     {r0-r4}
        0x0000027c:    4606        .F      MOV      r6,r0
        0x0000027e:    2000        .       MOVS     r0,#0
        0x00000280:    b082        ..      SUB      sp,sp,#8
        0x00000282:    4605        .F      MOV      r5,r0
        0x00000284:    2440        @$      MOVS     r4,#0x40
        0x00000286:    9101        ..      STR      r1,[sp,#4]
        0x00000288:    9000        ..      STR      r0,[sp,#0]
        0x0000028a:    e01b        ..      B        0x2c4 ; __aeabi_uldivmod + 76
        0x0000028c:    9901        ..      LDR      r1,[sp,#4]
        0x0000028e:    4622        "F      MOV      r2,r4
        0x00000290:    460f        .F      MOV      r7,r1
        0x00000292:    4630        0F      MOV      r0,r6
        0x00000294:    f000fa27    ..'.    BL       __aeabi_llsr ; 0x6e6
        0x00000298:    9a04        ..      LDR      r2,[sp,#0x10]
        0x0000029a:    9b05        ..      LDR      r3,[sp,#0x14]
        0x0000029c:    1a80        ..      SUBS     r0,r0,r2
        0x0000029e:    4199        .A      SBCS     r1,r1,r3
        0x000002a0:    d310        ..      BCC      0x2c4 ; __aeabi_uldivmod + 76
        0x000002a2:    4610        .F      MOV      r0,r2
        0x000002a4:    4619        .F      MOV      r1,r3
        0x000002a6:    4622        "F      MOV      r2,r4
        0x000002a8:    f000fa0d    ....    BL       __aeabi_llsl ; 0x6c6
        0x000002ac:    1a36        6.      SUBS     r6,r6,r0
        0x000002ae:    418f        .A      SBCS     r7,r7,r1
        0x000002b0:    9701        ..      STR      r7,[sp,#4]
        0x000002b2:    4622        "F      MOV      r2,r4
        0x000002b4:    2001        .       MOVS     r0,#1
        0x000002b6:    2100        .!      MOVS     r1,#0
        0x000002b8:    9f00        ..      LDR      r7,[sp,#0]
        0x000002ba:    f000fa04    ....    BL       __aeabi_llsl ; 0x6c6
        0x000002be:    1838        8.      ADDS     r0,r7,r0
        0x000002c0:    414d        MA      ADCS     r5,r5,r1
        0x000002c2:    9000        ..      STR      r0,[sp,#0]
        0x000002c4:    4620         F      MOV      r0,r4
        0x000002c6:    1e64        d.      SUBS     r4,r4,#1
        0x000002c8:    2800        .(      CMP      r0,#0
        0x000002ca:    dcdf        ..      BGT      0x28c ; __aeabi_uldivmod + 20
        0x000002cc:    9b01        ..      LDR      r3,[sp,#4]
        0x000002ce:    9800        ..      LDR      r0,[sp,#0]
        0x000002d0:    4629        )F      MOV      r1,r5
        0x000002d2:    4632        2F      MOV      r2,r6
        0x000002d4:    b007        ..      ADD      sp,sp,#0x1c
        0x000002d6:    bdf0        ..      POP      {r4-r7,pc}
    .text
    .text
    __I$use$fp
    __aeabi_dadd
        0x000002d8:    b5f0        ..      PUSH     {r4-r7,lr}
        0x000002da:    4607        .F      MOV      r7,r0
        0x000002dc:    4608        .F      MOV      r0,r1
        0x000002de:    4058        X@      EORS     r0,r0,r3
        0x000002e0:    b087        ..      SUB      sp,sp,#0x1c
        0x000002e2:    0fc0        ..      LSRS     r0,r0,#31
        0x000002e4:    9004        ..      STR      r0,[sp,#0x10]
        0x000002e6:    0048        H.      LSLS     r0,r1,#1
        0x000002e8:    460e        .F      MOV      r6,r1
        0x000002ea:    0059        Y.      LSLS     r1,r3,#1
        0x000002ec:    0840        @.      LSRS     r0,r0,#1
        0x000002ee:    0849        I.      LSRS     r1,r1,#1
        0x000002f0:    1abc        ..      SUBS     r4,r7,r2
        0x000002f2:    4188        .A      SBCS     r0,r0,r1
        0x000002f4:    d205        ..      BCS      0x302 ; __I$use$fp + 42
        0x000002f6:    4638        8F      MOV      r0,r7
        0x000002f8:    4631        1F      MOV      r1,r6
        0x000002fa:    461e        .F      MOV      r6,r3
        0x000002fc:    4617        .F      MOV      r7,r2
        0x000002fe:    460b        .F      MOV      r3,r1
        0x00000300:    4602        .F      MOV      r2,r0
        0x00000302:    0058        X.      LSLS     r0,r3,#1
        0x00000304:    0840        @.      LSRS     r0,r0,#1
        0x00000306:    4310        .C      ORRS     r0,r0,r2
        0x00000308:    d04c        L.      BEQ      0x3a4 ; __I$use$fp + 204
        0x0000030a:    0d30        0.      LSRS     r0,r6,#20
        0x0000030c:    9003        ..      STR      r0,[sp,#0xc]
        0x0000030e:    0540        @.      LSLS     r0,r0,#21
        0x00000310:    0059        Y.      LSLS     r1,r3,#1
        0x00000312:    0d40        @.      LSRS     r0,r0,#21
        0x00000314:    0d49        I.      LSRS     r1,r1,#21
        0x00000316:    9005        ..      STR      r0,[sp,#0x14]
        0x00000318:    1a40        @.      SUBS     r0,r0,r1
        0x0000031a:    9002        ..      STR      r0,[sp,#8]
        0x0000031c:    2840        @(      CMP      r0,#0x40
        0x0000031e:    da72        r.      BGE      0x406 ; __I$use$fp + 302
        0x00000320:    0318        ..      LSLS     r0,r3,#12
        0x00000322:    2101        .!      MOVS     r1,#1
        0x00000324:    0b00        ..      LSRS     r0,r0,#12
        0x00000326:    0509        ..      LSLS     r1,r1,#20
        0x00000328:    4308        .C      ORRS     r0,r0,r1
        0x0000032a:    9001        ..      STR      r0,[sp,#4]
        0x0000032c:    9804        ..      LDR      r0,[sp,#0x10]
        0x0000032e:    9200        ..      STR      r2,[sp,#0]
        0x00000330:    2800        .(      CMP      r0,#0
        0x00000332:    d005        ..      BEQ      0x340 ; __I$use$fp + 104
        0x00000334:    9901        ..      LDR      r1,[sp,#4]
        0x00000336:    4252        RB      RSBS     r2,r2,#0
        0x00000338:    2000        .       MOVS     r0,#0
        0x0000033a:    4188        .A      SBCS     r0,r0,r1
        0x0000033c:    9200        ..      STR      r2,[sp,#0]
        0x0000033e:    9001        ..      STR      r0,[sp,#4]
        0x00000340:    9802        ..      LDR      r0,[sp,#8]
        0x00000342:    2140        @!      MOVS     r1,#0x40
        0x00000344:    1a0a        ..      SUBS     r2,r1,r0
        0x00000346:    9901        ..      LDR      r1,[sp,#4]
        0x00000348:    9800        ..      LDR      r0,[sp,#0]
        0x0000034a:    f000f9bc    ....    BL       __aeabi_llsl ; 0x6c6
        0x0000034e:    4605        .F      MOV      r5,r0
        0x00000350:    460c        .F      MOV      r4,r1
        0x00000352:    466b        kF      MOV      r3,sp
        0x00000354:    cb07        ..      LDM      r3!,{r0-r2}
        0x00000356:    f000f9d7    ....    BL       __aeabi_lasr ; 0x708
        0x0000035a:    19c0        ..      ADDS     r0,r0,r7
        0x0000035c:    4171        qA      ADCS     r1,r1,r6
        0x0000035e:    9a03        ..      LDR      r2,[sp,#0xc]
        0x00000360:    0d0e        ..      LSRS     r6,r1,#20
        0x00000362:    2300        .#      MOVS     r3,#0
        0x00000364:    17d7        ..      ASRS     r7,r2,#31
        0x00000366:    4056        V@      EORS     r6,r6,r2
        0x00000368:    461a        .F      MOV      r2,r3
        0x0000036a:    407a        z@      EORS     r2,r2,r7
        0x0000036c:    4316        .C      ORRS     r6,r6,r2
        0x0000036e:    d044        D.      BEQ      0x3fa ; __I$use$fp + 290
        0x00000370:    9a04        ..      LDR      r2,[sp,#0x10]
        0x00000372:    2a00        .*      CMP      r2,#0
        0x00000374:    d02d        -.      BEQ      0x3d2 ; __I$use$fp + 250
        0x00000376:    9a02        ..      LDR      r2,[sp,#8]
        0x00000378:    2a01        .*      CMP      r2,#1
        0x0000037a:    9a03        ..      LDR      r2,[sp,#0xc]
        0x0000037c:    dc15        ..      BGT      0x3aa ; __I$use$fp + 210
        0x0000037e:    0512        ..      LSLS     r2,r2,#20
        0x00000380:    1ac0        ..      SUBS     r0,r0,r3
        0x00000382:    4191        .A      SBCS     r1,r1,r2
        0x00000384:    2601        .&      MOVS     r6,#1
        0x00000386:    0536        6.      LSLS     r6,r6,#20
        0x00000388:    1c00        ..      ADDS     r0,r0,#0
        0x0000038a:    4171        qA      ADCS     r1,r1,r6
        0x0000038c:    0fd2        ..      LSRS     r2,r2,#31
        0x0000038e:    9e05        ..      LDR      r6,[sp,#0x14]
        0x00000390:    07d2        ..      LSLS     r2,r2,#31
        0x00000392:    9300        ..      STR      r3,[sp,#0]
        0x00000394:    9201        ..      STR      r2,[sp,#4]
        0x00000396:    9602        ..      STR      r6,[sp,#8]
        0x00000398:    462a        *F      MOV      r2,r5
        0x0000039a:    4623        #F      MOV      r3,r4
        0x0000039c:    f000f9d4    ....    BL       _double_epilogue ; 0x748
        0x000003a0:    b007        ..      ADD      sp,sp,#0x1c
        0x000003a2:    bdf0        ..      POP      {r4-r7,pc}
        0x000003a4:    4638        8F      MOV      r0,r7
        0x000003a6:    4631        1F      MOV      r1,r6
        0x000003a8:    e7fa        ..      B        0x3a0 ; __I$use$fp + 200
        0x000003aa:    0516        ..      LSLS     r6,r2,#20
        0x000003ac:    4a22        "J      LDR      r2,[pc,#136] ; [0x438] = 0xffe00000
        0x000003ae:    460f        .F      MOV      r7,r1
        0x000003b0:    18b2        ..      ADDS     r2,r6,r2
        0x000003b2:    1ac0        ..      SUBS     r0,r0,r3
        0x000003b4:    41b7        .A      SBCS     r7,r7,r6
        0x000003b6:    2101        .!      MOVS     r1,#1
        0x000003b8:    0509        ..      LSLS     r1,r1,#20
        0x000003ba:    1c00        ..      ADDS     r0,r0,#0
        0x000003bc:    414f        OA      ADCS     r7,r7,r1
        0x000003be:    1800        ..      ADDS     r0,r0,r0
        0x000003c0:    417f        .A      ADCS     r7,r7,r7
        0x000003c2:    4611        .F      MOV      r1,r2
        0x000003c4:    1818        ..      ADDS     r0,r3,r0
        0x000003c6:    4179        yA      ADCS     r1,r1,r7
        0x000003c8:    0fe2        ..      LSRS     r2,r4,#31
        0x000003ca:    4310        .C      ORRS     r0,r0,r2
        0x000003cc:    196d        m.      ADDS     r5,r5,r5
        0x000003ce:    4164        dA      ADCS     r4,r4,r4
        0x000003d0:    e013        ..      B        0x3fa ; __I$use$fp + 290
        0x000003d2:    07e2        ..      LSLS     r2,r4,#31
        0x000003d4:    086d        m.      LSRS     r5,r5,#1
        0x000003d6:    4315        .C      ORRS     r5,r5,r2
        0x000003d8:    0864        d.      LSRS     r4,r4,#1
        0x000003da:    07c2        ..      LSLS     r2,r0,#31
        0x000003dc:    4314        .C      ORRS     r4,r4,r2
        0x000003de:    9a03        ..      LDR      r2,[sp,#0xc]
        0x000003e0:    2601        .&      MOVS     r6,#1
        0x000003e2:    0512        ..      LSLS     r2,r2,#20
        0x000003e4:    1ac0        ..      SUBS     r0,r0,r3
        0x000003e6:    4191        .A      SBCS     r1,r1,r2
        0x000003e8:    0536        6.      LSLS     r6,r6,#20
        0x000003ea:    1c00        ..      ADDS     r0,r0,#0
        0x000003ec:    4171        qA      ADCS     r1,r1,r6
        0x000003ee:    07ce        ..      LSLS     r6,r1,#31
        0x000003f0:    0840        @.      LSRS     r0,r0,#1
        0x000003f2:    4330        0C      ORRS     r0,r0,r6
        0x000003f4:    0849        I.      LSRS     r1,r1,#1
        0x000003f6:    18c0        ..      ADDS     r0,r0,r3
        0x000003f8:    4151        QA      ADCS     r1,r1,r2
        0x000003fa:    462a        *F      MOV      r2,r5
        0x000003fc:    4623        #F      MOV      r3,r4
        0x000003fe:    f000f996    ....    BL       _double_round ; 0x72e
        0x00000402:    e7cd        ..      B        0x3a0 ; __I$use$fp + 200
        0x00000404:    e7ff        ..      B        0x406 ; __I$use$fp + 302
        0x00000406:    9804        ..      LDR      r0,[sp,#0x10]
        0x00000408:    2201        ."      MOVS     r2,#1
        0x0000040a:    0040        @.      LSLS     r0,r0,#1
        0x0000040c:    17c1        ..      ASRS     r1,r0,#31
        0x0000040e:    1a12        ..      SUBS     r2,r2,r0
        0x00000410:    2300        .#      MOVS     r3,#0
        0x00000412:    418b        .A      SBCS     r3,r3,r1
        0x00000414:    9804        ..      LDR      r0,[sp,#0x10]
        0x00000416:    4631        1F      MOV      r1,r6
        0x00000418:    17c4        ..      ASRS     r4,r0,#31
        0x0000041a:    1a38        8.      SUBS     r0,r7,r0
        0x0000041c:    41a1        .A      SBCS     r1,r1,r4
        0x0000041e:    e7ee        ..      B        0x3fe ; __I$use$fp + 294
    __aeabi_dsub
        0x00000420:    b430        0.      PUSH     {r4,r5}
        0x00000422:    2401        .$      MOVS     r4,#1
        0x00000424:    07e4        ..      LSLS     r4,r4,#31
        0x00000426:    4063        c@      EORS     r3,r3,r4
        0x00000428:    bc30        0.      POP      {r4,r5}
        0x0000042a:    e755        U.      B        __I$use$fp ; 0x2d8
    __aeabi_drsub
        0x0000042c:    b430        0.      PUSH     {r4,r5}
        0x0000042e:    2401        .$      MOVS     r4,#1
        0x00000430:    07e4        ..      LSLS     r4,r4,#31
        0x00000432:    4061        a@      EORS     r1,r1,r4
        0x00000434:    bc30        0.      POP      {r4,r5}
        0x00000436:    e74f        O.      B        __I$use$fp ; 0x2d8
    $d
        0x00000438:    ffe00000    ....    DCD    4292870144
    $t
    .text
    __aeabi_dmul
        0x0000043c:    b5f0        ..      PUSH     {r4-r7,lr}
        0x0000043e:    b41f        ..      PUSH     {r0-r4}
        0x00000440:    b088        ..      SUB      sp,sp,#0x20
        0x00000442:    990b        ..      LDR      r1,[sp,#0x2c]
        0x00000444:    9809        ..      LDR      r0,[sp,#0x24]
        0x00000446:    2400        .$      MOVS     r4,#0
        0x00000448:    4048        H@      EORS     r0,r0,r1
        0x0000044a:    9909        ..      LDR      r1,[sp,#0x24]
        0x0000044c:    0fc0        ..      LSRS     r0,r0,#31
        0x0000044e:    0049        I.      LSLS     r1,r1,#1
        0x00000450:    0849        I.      LSRS     r1,r1,#1
        0x00000452:    9109        ..      STR      r1,[sp,#0x24]
        0x00000454:    07c0        ..      LSLS     r0,r0,#31
        0x00000456:    990b        ..      LDR      r1,[sp,#0x2c]
        0x00000458:    9000        ..      STR      r0,[sp,#0]
        0x0000045a:    0049        I.      LSLS     r1,r1,#1
        0x0000045c:    0849        I.      LSRS     r1,r1,#1
        0x0000045e:    910b        ..      STR      r1,[sp,#0x2c]
        0x00000460:    9909        ..      LDR      r1,[sp,#0x24]
        0x00000462:    9808        ..      LDR      r0,[sp,#0x20]
        0x00000464:    46a6        .F      MOV      lr,r4
        0x00000466:    4308        .C      ORRS     r0,r0,r1
        0x00000468:    d01c        ..      BEQ      0x4a4 ; __aeabi_dmul + 104
        0x0000046a:    990b        ..      LDR      r1,[sp,#0x2c]
        0x0000046c:    980a        ..      LDR      r0,[sp,#0x28]
        0x0000046e:    4308        .C      ORRS     r0,r0,r1
        0x00000470:    d018        ..      BEQ      0x4a4 ; __aeabi_dmul + 104
        0x00000472:    9809        ..      LDR      r0,[sp,#0x24]
        0x00000474:    2401        .$      MOVS     r4,#1
        0x00000476:    0040        @.      LSLS     r0,r0,#1
        0x00000478:    0d42        B.      LSRS     r2,r0,#21
        0x0000047a:    0048        H.      LSLS     r0,r1,#1
        0x0000047c:    0d41        A.      LSRS     r1,r0,#21
        0x0000047e:    9809        ..      LDR      r0,[sp,#0x24]
        0x00000480:    0524        $.      LSLS     r4,r4,#20
        0x00000482:    0300        ..      LSLS     r0,r0,#12
        0x00000484:    0b00        ..      LSRS     r0,r0,#12
        0x00000486:    4320         C      ORRS     r0,r0,r4
        0x00000488:    9009        ..      STR      r0,[sp,#0x24]
        0x0000048a:    980b        ..      LDR      r0,[sp,#0x2c]
        0x0000048c:    0300        ..      LSLS     r0,r0,#12
        0x0000048e:    0b00        ..      LSRS     r0,r0,#12
        0x00000490:    4320         C      ORRS     r0,r0,r4
        0x00000492:    900b        ..      STR      r0,[sp,#0x2c]
        0x00000494:    1850        P.      ADDS     r0,r2,r1
        0x00000496:    491c        .I      LDR      r1,[pc,#112] ; [0x508] = 0xfffffc0d
        0x00000498:    1840        @.      ADDS     r0,r0,r1
        0x0000049a:    2200        ."      MOVS     r2,#0
        0x0000049c:    9001        ..      STR      r0,[sp,#4]
        0x0000049e:    4614        .F      MOV      r4,r2
        0x000004a0:    4610        .F      MOV      r0,r2
        0x000004a2:    e005        ..      B        0x4b0 ; __aeabi_dmul + 116
        0x000004a4:    2000        .       MOVS     r0,#0
        0x000004a6:    4601        .F      MOV      r1,r0
        0x000004a8:    b00d        ..      ADD      sp,sp,#0x34
        0x000004aa:    bdf0        ..      POP      {r4-r7,pc}
        0x000004ac:    2803        .(      CMP      r0,#3
        0x000004ae:    da01        ..      BGE      0x4b4 ; __aeabi_dmul + 120
        0x000004b0:    4603        .F      MOV      r3,r0
        0x000004b2:    e000        ..      B        0x4b6 ; __aeabi_dmul + 122
        0x000004b4:    2303        .#      MOVS     r3,#3
        0x000004b6:    469c        .F      MOV      r12,r3
        0x000004b8:    1ac1        ..      SUBS     r1,r0,r3
        0x000004ba:    ae0a        ..      ADD      r6,sp,#0x28
        0x000004bc:    e00a        ..      B        0x4d4 ; __aeabi_dmul + 152
        0x000004be:    005f        _.      LSLS     r7,r3,#1
        0x000004c0:    ad08        ..      ADD      r5,sp,#0x20
        0x000004c2:    5bed        .[      LDRH     r5,[r5,r7]
        0x000004c4:    004f        O.      LSLS     r7,r1,#1
        0x000004c6:    5bf7        .[      LDRH     r7,[r6,r7]
        0x000004c8:    437d        }C      MULS     r5,r7,r5
        0x000004ca:    2700        .'      MOVS     r7,#0
        0x000004cc:    18aa        ..      ADDS     r2,r5,r2
        0x000004ce:    417c        |A      ADCS     r4,r4,r7
        0x000004d0:    1c49        I.      ADDS     r1,r1,#1
        0x000004d2:    1e5b        [.      SUBS     r3,r3,#1
        0x000004d4:    4561        aE      CMP      r1,r12
        0x000004d6:    ddf2        ..      BLE      0x4be ; __aeabi_dmul + 130
        0x000004d8:    0041        A.      LSLS     r1,r0,#1
        0x000004da:    ab04        ..      ADD      r3,sp,#0x10
        0x000004dc:    525a        ZR      STRH     r2,[r3,r1]
        0x000004de:    0421        !.      LSLS     r1,r4,#16
        0x000004e0:    0c12        ..      LSRS     r2,r2,#16
        0x000004e2:    430a        .C      ORRS     r2,r2,r1
        0x000004e4:    0c24        $.      LSRS     r4,r4,#16
        0x000004e6:    1c40        @.      ADDS     r0,r0,#1
        0x000004e8:    2808        .(      CMP      r0,#8
        0x000004ea:    dbdf        ..      BLT      0x4ac ; __aeabi_dmul + 112
        0x000004ec:    9801        ..      LDR      r0,[sp,#4]
        0x000004ee:    9002        ..      STR      r0,[sp,#8]
        0x000004f0:    9900        ..      LDR      r1,[sp,#0]
        0x000004f2:    4670        pF      MOV      r0,lr
        0x000004f4:    9101        ..      STR      r1,[sp,#4]
        0x000004f6:    9000        ..      STR      r0,[sp,#0]
        0x000004f8:    9b05        ..      LDR      r3,[sp,#0x14]
        0x000004fa:    9a04        ..      LDR      r2,[sp,#0x10]
        0x000004fc:    9907        ..      LDR      r1,[sp,#0x1c]
        0x000004fe:    9806        ..      LDR      r0,[sp,#0x18]
        0x00000500:    f000f922    ..".    BL       _double_epilogue ; 0x748
        0x00000504:    e7d0        ..      B        0x4a8 ; __aeabi_dmul + 108
    $d
        0x00000506:    0000        ..      DCW    0
        0x00000508:    fffffc0d    ....    DCD    4294966285
    $t
    .text
    __aeabi_ddiv
        0x0000050c:    b5f0        ..      PUSH     {r4-r7,lr}
        0x0000050e:    460c        .F      MOV      r4,r1
        0x00000510:    405c        \@      EORS     r4,r4,r3
        0x00000512:    b085        ..      SUB      sp,sp,#0x14
        0x00000514:    0fe4        ..      LSRS     r4,r4,#31
        0x00000516:    07e4        ..      LSLS     r4,r4,#31
        0x00000518:    9403        ..      STR      r4,[sp,#0xc]
        0x0000051a:    004c        L.      LSLS     r4,r1,#1
        0x0000051c:    2600        .&      MOVS     r6,#0
        0x0000051e:    0864        d.      LSRS     r4,r4,#1
        0x00000520:    0059        Y.      LSLS     r1,r3,#1
        0x00000522:    4694        .F      MOV      r12,r2
        0x00000524:    0849        I.      LSRS     r1,r1,#1
        0x00000526:    4602        .F      MOV      r2,r0
        0x00000528:    9602        ..      STR      r6,[sp,#8]
        0x0000052a:    4322        "C      ORRS     r2,r2,r4
        0x0000052c:    d021        !.      BEQ      0x572 ; __aeabi_ddiv + 102
        0x0000052e:    4662        bF      MOV      r2,r12
        0x00000530:    430a        .C      ORRS     r2,r2,r1
        0x00000532:    d01e        ..      BEQ      0x572 ; __aeabi_ddiv + 102
        0x00000534:    0062        b.      LSLS     r2,r4,#1
        0x00000536:    0d57        W.      LSRS     r7,r2,#21
        0x00000538:    004a        J.      LSLS     r2,r1,#1
        0x0000053a:    030e        ..      LSLS     r6,r1,#12
        0x0000053c:    0323        #.      LSLS     r3,r4,#12
        0x0000053e:    0d55        U.      LSRS     r5,r2,#21
        0x00000540:    2401        .$      MOVS     r4,#1
        0x00000542:    4602        .F      MOV      r2,r0
        0x00000544:    492c        ,I      LDR      r1,[pc,#176] ; [0x5f8] = 0x3fd
        0x00000546:    0524        $.      LSLS     r4,r4,#20
        0x00000548:    1b78        x.      SUBS     r0,r7,r5
        0x0000054a:    0b1b        ..      LSRS     r3,r3,#12
        0x0000054c:    0b36        6.      LSRS     r6,r6,#12
        0x0000054e:    1840        @.      ADDS     r0,r0,r1
        0x00000550:    4323        #C      ORRS     r3,r3,r4
        0x00000552:    4326        &C      ORRS     r6,r6,r4
        0x00000554:    4661        aF      MOV      r1,r12
        0x00000556:    9000        ..      STR      r0,[sp,#0]
        0x00000558:    461c        .F      MOV      r4,r3
        0x0000055a:    1a50        P.      SUBS     r0,r2,r1
        0x0000055c:    41b4        .A      SBCS     r4,r4,r6
        0x0000055e:    d303        ..      BCC      0x568 ; __aeabi_ddiv + 92
        0x00000560:    9800        ..      LDR      r0,[sp,#0]
        0x00000562:    1c40        @.      ADDS     r0,r0,#1
        0x00000564:    9000        ..      STR      r0,[sp,#0]
        0x00000566:    e002        ..      B        0x56e ; __aeabi_ddiv + 98
        0x00000568:    1892        ..      ADDS     r2,r2,r2
        0x0000056a:    9800        ..      LDR      r0,[sp,#0]
        0x0000056c:    415b        [A      ADCS     r3,r3,r3
        0x0000056e:    2800        .(      CMP      r0,#0
        0x00000570:    da03        ..      BGE      0x57a ; __aeabi_ddiv + 110
        0x00000572:    2000        .       MOVS     r0,#0
        0x00000574:    4601        .F      MOV      r1,r0
        0x00000576:    b005        ..      ADD      sp,sp,#0x14
        0x00000578:    bdf0        ..      POP      {r4-r7,pc}
        0x0000057a:    2000        .       MOVS     r0,#0
        0x0000057c:    2101        .!      MOVS     r1,#1
        0x0000057e:    0509        ..      LSLS     r1,r1,#20
        0x00000580:    4607        .F      MOV      r7,r0
        0x00000582:    4686        .F      MOV      lr,r0
        0x00000584:    e011        ..      B        0x5aa ; __aeabi_ddiv + 158
        0x00000586:    4664        dF      MOV      r4,r12
        0x00000588:    461d        .F      MOV      r5,r3
        0x0000058a:    1b14        ..      SUBS     r4,r2,r4
        0x0000058c:    41b5        .A      SBCS     r5,r5,r6
        0x0000058e:    d306        ..      BCC      0x59e ; __aeabi_ddiv + 146
        0x00000590:    4665        eF      MOV      r5,r12
        0x00000592:    1b52        R.      SUBS     r2,r2,r5
        0x00000594:    41b3        .A      SBCS     r3,r3,r6
        0x00000596:    4674        tF      MOV      r4,lr
        0x00000598:    4307        .C      ORRS     r7,r7,r0
        0x0000059a:    430c        .C      ORRS     r4,r4,r1
        0x0000059c:    46a6        .F      MOV      lr,r4
        0x0000059e:    07cd        ..      LSLS     r5,r1,#31
        0x000005a0:    0840        @.      LSRS     r0,r0,#1
        0x000005a2:    0849        I.      LSRS     r1,r1,#1
        0x000005a4:    4328        (C      ORRS     r0,r0,r5
        0x000005a6:    1892        ..      ADDS     r2,r2,r2
        0x000005a8:    415b        [A      ADCS     r3,r3,r3
        0x000005aa:    4605        .F      MOV      r5,r0
        0x000005ac:    430d        .C      ORRS     r5,r5,r1
        0x000005ae:    d1ea        ..      BNE      0x586 ; __aeabi_ddiv + 122
        0x000005b0:    4610        .F      MOV      r0,r2
        0x000005b2:    4318        .C      ORRS     r0,r0,r3
        0x000005b4:    d013        ..      BEQ      0x5de ; __aeabi_ddiv + 210
        0x000005b6:    4660        `F      MOV      r0,r12
        0x000005b8:    4619        .F      MOV      r1,r3
        0x000005ba:    4050        P@      EORS     r0,r0,r2
        0x000005bc:    4071        q@      EORS     r1,r1,r6
        0x000005be:    4308        .C      ORRS     r0,r0,r1
        0x000005c0:    d006        ..      BEQ      0x5d0 ; __aeabi_ddiv + 196
        0x000005c2:    4660        `F      MOV      r0,r12
        0x000005c4:    1a10        ..      SUBS     r0,r2,r0
        0x000005c6:    41b3        .A      SBCS     r3,r3,r6
        0x000005c8:    d206        ..      BCS      0x5d8 ; __aeabi_ddiv + 204
        0x000005ca:    2201        ."      MOVS     r2,#1
        0x000005cc:    2300        .#      MOVS     r3,#0
        0x000005ce:    e006        ..      B        0x5de ; __aeabi_ddiv + 210
        0x000005d0:    2200        ."      MOVS     r2,#0
        0x000005d2:    2301        .#      MOVS     r3,#1
        0x000005d4:    07db        ..      LSLS     r3,r3,#31
        0x000005d6:    e002        ..      B        0x5de ; __aeabi_ddiv + 210
        0x000005d8:    2201        ."      MOVS     r2,#1
        0x000005da:    43d2        .C      MVNS     r2,r2
        0x000005dc:    1053        S.      ASRS     r3,r2,#1
        0x000005de:    9800        ..      LDR      r0,[sp,#0]
        0x000005e0:    4674        tF      MOV      r4,lr
        0x000005e2:    0501        ..      LSLS     r1,r0,#20
        0x000005e4:    1c38        8.      ADDS     r0,r7,#0
        0x000005e6:    4161        aA      ADCS     r1,r1,r4
        0x000005e8:    9c02        ..      LDR      r4,[sp,#8]
        0x000005ea:    9d03        ..      LDR      r5,[sp,#0xc]
        0x000005ec:    1900        ..      ADDS     r0,r0,r4
        0x000005ee:    4169        iA      ADCS     r1,r1,r5
        0x000005f0:    f000f89d    ....    BL       _double_round ; 0x72e
        0x000005f4:    e7bf        ..      B        0x576 ; __aeabi_ddiv + 106
    $d
        0x000005f6:    0000        ..      DCW    0
        0x000005f8:    000003fd    ....    DCD    1021
    $t
    .text
    __aeabi_d2ulz
        0x000005fc:    004a        J.      LSLS     r2,r1,#1
        0x000005fe:    0309        ..      LSLS     r1,r1,#12
        0x00000600:    2301        .#      MOVS     r3,#1
        0x00000602:    0b09        ..      LSRS     r1,r1,#12
        0x00000604:    051b        ..      LSLS     r3,r3,#20
        0x00000606:    4319        .C      ORRS     r1,r1,r3
        0x00000608:    4b0a        .K      LDR      r3,[pc,#40] ; [0x634] = 0x3ff
        0x0000060a:    b510        ..      PUSH     {r4,lr}
        0x0000060c:    0d52        R.      LSRS     r2,r2,#21
        0x0000060e:    429a        .B      CMP      r2,r3
        0x00000610:    da02        ..      BGE      0x618 ; __aeabi_d2ulz + 28
        0x00000612:    2000        .       MOVS     r0,#0
        0x00000614:    4601        .F      MOV      r1,r0
        0x00000616:    bd10        ..      POP      {r4,pc}
        0x00000618:    4b06        .K      LDR      r3,[pc,#24] ; [0x634] = 0x3ff
        0x0000061a:    3334        43      ADDS     r3,r3,#0x34
        0x0000061c:    429a        .B      CMP      r2,r3
        0x0000061e:    dc03        ..      BGT      0x628 ; __aeabi_d2ulz + 44
        0x00000620:    1a9a        ..      SUBS     r2,r3,r2
        0x00000622:    f000f860    ..`.    BL       __aeabi_llsr ; 0x6e6
        0x00000626:    bd10        ..      POP      {r4,pc}
        0x00000628:    4b03        .K      LDR      r3,[pc,#12] ; [0x638] = 0xfffffbcd
        0x0000062a:    18d2        ..      ADDS     r2,r2,r3
        0x0000062c:    f000f84b    ..K.    BL       __aeabi_llsl ; 0x6c6
        0x00000630:    bd10        ..      POP      {r4,pc}
    $d
        0x00000632:    0000        ..      DCW    0
        0x00000634:    000003ff    ....    DCD    1023
        0x00000638:    fffffbcd    ....    DCD    4294966221
    $t
    .text
    __aeabi_cdrcmple
        0x0000063c:    b510        ..      PUSH     {r4,lr}
        0x0000063e:    2900        .)      CMP      r1,#0
        0x00000640:    db04        ..      BLT      0x64c ; __aeabi_cdrcmple + 16
        0x00000642:    2401        .$      MOVS     r4,#1
        0x00000644:    07e4        ..      LSLS     r4,r4,#31
        0x00000646:    4240        @B      RSBS     r0,r0,#0
        0x00000648:    418c        .A      SBCS     r4,r4,r1
        0x0000064a:    4621        !F      MOV      r1,r4
        0x0000064c:    2b00        .+      CMP      r3,#0
        0x0000064e:    db04        ..      BLT      0x65a ; __aeabi_cdrcmple + 30
        0x00000650:    461c        .F      MOV      r4,r3
        0x00000652:    2301        .#      MOVS     r3,#1
        0x00000654:    07db        ..      LSLS     r3,r3,#31
        0x00000656:    4252        RB      RSBS     r2,r2,#0
        0x00000658:    41a3        .A      SBCS     r3,r3,r4
        0x0000065a:    4299        .B      CMP      r1,r3
        0x0000065c:    d100        ..      BNE      0x660 ; __aeabi_cdrcmple + 36
        0x0000065e:    4290        .B      CMP      r0,r2
        0x00000660:    bd10        ..      POP      {r4,pc}
    $d
        0x00000662:    0000        ..      DCW    0
    $t
    .text
    __scatterload
    __scatterload_rt2
        0x00000664:    4c06        .L      LDR      r4,[pc,#24] ; [0x680] = 0x2c6c
        0x00000666:    2501        .%      MOVS     r5,#1
        0x00000668:    4e06        .N      LDR      r6,[pc,#24] ; [0x684] = 0x2c8c
        0x0000066a:    e005        ..      B        0x678 ; __scatterload + 20
        0x0000066c:    68e3        .h      LDR      r3,[r4,#0xc]
        0x0000066e:    cc07        ..      LDM      r4!,{r0-r2}
        0x00000670:    432b        +C      ORRS     r3,r3,r5
        0x00000672:    3c0c        .<      SUBS     r4,r4,#0xc
        0x00000674:    4798        .G      BLX      r3
        0x00000676:    3410        .4      ADDS     r4,r4,#0x10
        0x00000678:    42b4        .B      CMP      r4,r6
        0x0000067a:    d3f7        ..      BCC      0x66c ; __scatterload + 8
        0x0000067c:    f7fffdb0    ....    BL       __main_after_scatterload ; 0x1e0
    $d
        0x00000680:    00002c6c    l,..    DCD    11372
        0x00000684:    00002c8c    .,..    DCD    11404
    $t
    .text
    __aeabi_uidiv$div0
    __aeabi_uidivmod
        0x00000688:    b570        p.      PUSH     {r4-r6,lr}
        0x0000068a:    4604        .F      MOV      r4,r0
        0x0000068c:    2900        .)      CMP      r1,#0
        0x0000068e:    d003        ..      BEQ      0x698 ; __aeabi_uidiv$div0 + 16
        0x00000690:    2000        .       MOVS     r0,#0
        0x00000692:    2220         "      MOVS     r2,#0x20
        0x00000694:    2301        .#      MOVS     r3,#1
        0x00000696:    e010        ..      B        0x6ba ; __aeabi_uidiv$div0 + 50
        0x00000698:    2800        .(      CMP      r0,#0
        0x0000069a:    d001        ..      BEQ      0x6a0 ; __aeabi_uidiv$div0 + 24
        0x0000069c:    2000        .       MOVS     r0,#0
        0x0000069e:    43c0        .C      MVNS     r0,r0
        0x000006a0:    46c0        .F      MOV      r8,r8
        0x000006a2:    46c0        .F      MOV      r8,r8
        0x000006a4:    e00d        ..      B        0x6c2 ; __aeabi_uidiv$div0 + 58
        0x000006a6:    4625        %F      MOV      r5,r4
        0x000006a8:    40d5        .@      LSRS     r5,r5,r2
        0x000006aa:    428d        .B      CMP      r5,r1
        0x000006ac:    d305        ..      BCC      0x6ba ; __aeabi_uidiv$div0 + 50
        0x000006ae:    460d        .F      MOV      r5,r1
        0x000006b0:    4095        .@      LSLS     r5,r5,r2
        0x000006b2:    1b64        d.      SUBS     r4,r4,r5
        0x000006b4:    461d        .F      MOV      r5,r3
        0x000006b6:    4095        .@      LSLS     r5,r5,r2
        0x000006b8:    1940        @.      ADDS     r0,r0,r5
        0x000006ba:    4615        .F      MOV      r5,r2
        0x000006bc:    1e52        R.      SUBS     r2,r2,#1
        0x000006be:    2d00        .-      CMP      r5,#0
        0x000006c0:    dcf1        ..      BGT      0x6a6 ; __aeabi_uidiv$div0 + 30
        0x000006c2:    4621        !F      MOV      r1,r4
        0x000006c4:    bd70        p.      POP      {r4-r6,pc}
    .text
    __aeabi_llsl
    _ll_shift_l
        0x000006c6:    b510        ..      PUSH     {r4,lr}
        0x000006c8:    2a20         *      CMP      r2,#0x20
        0x000006ca:    db04        ..      BLT      0x6d6 ; __aeabi_llsl + 16
        0x000006cc:    4601        .F      MOV      r1,r0
        0x000006ce:    3a20         :      SUBS     r2,r2,#0x20
        0x000006d0:    4091        .@      LSLS     r1,r1,r2
        0x000006d2:    2000        .       MOVS     r0,#0
        0x000006d4:    bd10        ..      POP      {r4,pc}
        0x000006d6:    4091        .@      LSLS     r1,r1,r2
        0x000006d8:    2320         #      MOVS     r3,#0x20
        0x000006da:    1a9c        ..      SUBS     r4,r3,r2
        0x000006dc:    4603        .F      MOV      r3,r0
        0x000006de:    40e3        .@      LSRS     r3,r3,r4
        0x000006e0:    4319        .C      ORRS     r1,r1,r3
        0x000006e2:    4090        .@      LSLS     r0,r0,r2
        0x000006e4:    bd10        ..      POP      {r4,pc}
    .text
    __aeabi_llsr
    _ll_ushift_r
        0x000006e6:    b510        ..      PUSH     {r4,lr}
        0x000006e8:    2a20         *      CMP      r2,#0x20
        0x000006ea:    db04        ..      BLT      0x6f6 ; __aeabi_llsr + 16
        0x000006ec:    4608        .F      MOV      r0,r1
        0x000006ee:    3a20         :      SUBS     r2,r2,#0x20
        0x000006f0:    40d0        .@      LSRS     r0,r0,r2
        0x000006f2:    2100        .!      MOVS     r1,#0
        0x000006f4:    bd10        ..      POP      {r4,pc}
        0x000006f6:    460b        .F      MOV      r3,r1
        0x000006f8:    40d3        .@      LSRS     r3,r3,r2
        0x000006fa:    40d0        .@      LSRS     r0,r0,r2
        0x000006fc:    2420         $      MOVS     r4,#0x20
        0x000006fe:    1aa2        ..      SUBS     r2,r4,r2
        0x00000700:    4091        .@      LSLS     r1,r1,r2
        0x00000702:    4308        .C      ORRS     r0,r0,r1
        0x00000704:    4619        .F      MOV      r1,r3
        0x00000706:    bd10        ..      POP      {r4,pc}
    .text
    __aeabi_lasr
    _ll_sshift_r
        0x00000708:    b510        ..      PUSH     {r4,lr}
        0x0000070a:    2a20         *      CMP      r2,#0x20
        0x0000070c:    db06        ..      BLT      0x71c ; __aeabi_lasr + 20
        0x0000070e:    17cb        ..      ASRS     r3,r1,#31
        0x00000710:    4608        .F      MOV      r0,r1
        0x00000712:    3a20         :      SUBS     r2,r2,#0x20
        0x00000714:    4110        .A      ASRS     r0,r0,r2
        0x00000716:    17c1        ..      ASRS     r1,r0,#31
        0x00000718:    430b        .C      ORRS     r3,r3,r1
        0x0000071a:    e006        ..      B        0x72a ; __aeabi_lasr + 34
        0x0000071c:    460b        .F      MOV      r3,r1
        0x0000071e:    4113        .A      ASRS     r3,r3,r2
        0x00000720:    40d0        .@      LSRS     r0,r0,r2
        0x00000722:    2420         $      MOVS     r4,#0x20
        0x00000724:    1aa2        ..      SUBS     r2,r4,r2
        0x00000726:    4091        .@      LSLS     r1,r1,r2
        0x00000728:    4308        .C      ORRS     r0,r0,r1
        0x0000072a:    4619        .F      MOV      r1,r3
        0x0000072c:    bd10        ..      POP      {r4,pc}
    .text
    _double_round
        0x0000072e:    b510        ..      PUSH     {r4,lr}
        0x00000730:    2b00        .+      CMP      r3,#0
        0x00000732:    da08        ..      BGE      0x746 ; _double_round + 24
        0x00000734:    2400        .$      MOVS     r4,#0
        0x00000736:    1c40        @.      ADDS     r0,r0,#1
        0x00000738:    4161        aA      ADCS     r1,r1,r4
        0x0000073a:    1892        ..      ADDS     r2,r2,r2
        0x0000073c:    415b        [A      ADCS     r3,r3,r3
        0x0000073e:    431a        .C      ORRS     r2,r2,r3
        0x00000740:    d101        ..      BNE      0x746 ; _double_round + 24
        0x00000742:    0840        @.      LSRS     r0,r0,#1
        0x00000744:    0040        @.      LSLS     r0,r0,#1
        0x00000746:    bd10        ..      POP      {r4,pc}
    _double_epilogue
        0x00000748:    b5f0        ..      PUSH     {r4-r7,lr}
        0x0000074a:    b41f        ..      PUSH     {r0-r4}
        0x0000074c:    b082        ..      SUB      sp,sp,#8
        0x0000074e:    4605        .F      MOV      r5,r0
        0x00000750:    000c        ..      MOVS     r4,r1
        0x00000752:    d003        ..      BEQ      0x75c ; _double_epilogue + 20
        0x00000754:    4608        .F      MOV      r0,r1
        0x00000756:    f001fb47    ..G.    BL       __ARM_clz ; 0x1de8
        0x0000075a:    e002        ..      B        0x762 ; _double_epilogue + 26
        0x0000075c:    f001fb44    ..D.    BL       __ARM_clz ; 0x1de8
        0x00000760:    3020         0      ADDS     r0,r0,#0x20
        0x00000762:    4602        .F      MOV      r2,r0
        0x00000764:    9000        ..      STR      r0,[sp,#0]
        0x00000766:    4621        !F      MOV      r1,r4
        0x00000768:    4628        (F      MOV      r0,r5
        0x0000076a:    f7ffffac    ....    BL       __aeabi_llsl ; 0x6c6
        0x0000076e:    9b04        ..      LDR      r3,[sp,#0x10]
        0x00000770:    9a05        ..      LDR      r2,[sp,#0x14]
        0x00000772:    4604        .F      MOV      r4,r0
        0x00000774:    460f        .F      MOV      r7,r1
        0x00000776:    4318        .C      ORRS     r0,r0,r3
        0x00000778:    4311        .C      ORRS     r1,r1,r2
        0x0000077a:    4308        .C      ORRS     r0,r0,r1
        0x0000077c:    d014        ..      BEQ      0x7a8 ; _double_epilogue + 96
        0x0000077e:    4618        .F      MOV      r0,r3
        0x00000780:    4310        .C      ORRS     r0,r0,r2
        0x00000782:    d01b        ..      BEQ      0x7bc ; _double_epilogue + 116
        0x00000784:    9800        ..      LDR      r0,[sp,#0]
        0x00000786:    2140        @!      MOVS     r1,#0x40
        0x00000788:    1a0a        ..      SUBS     r2,r1,r0
        0x0000078a:    4618        .F      MOV      r0,r3
        0x0000078c:    9905        ..      LDR      r1,[sp,#0x14]
        0x0000078e:    f7ffffaa    ....    BL       __aeabi_llsr ; 0x6e6
        0x00000792:    4605        .F      MOV      r5,r0
        0x00000794:    460e        .F      MOV      r6,r1
        0x00000796:    9a00        ..      LDR      r2,[sp,#0]
        0x00000798:    9905        ..      LDR      r1,[sp,#0x14]
        0x0000079a:    9804        ..      LDR      r0,[sp,#0x10]
        0x0000079c:    f7ffff93    ....    BL       __aeabi_llsl ; 0x6c6
        0x000007a0:    4308        .C      ORRS     r0,r0,r1
        0x000007a2:    d005        ..      BEQ      0x7b0 ; _double_epilogue + 104
        0x000007a4:    2001        .       MOVS     r0,#1
        0x000007a6:    e004        ..      B        0x7b2 ; _double_epilogue + 106
        0x000007a8:    4620         F      MOV      r0,r4
        0x000007aa:    4639        9F      MOV      r1,r7
        0x000007ac:    b007        ..      ADD      sp,sp,#0x1c
        0x000007ae:    bdf0        ..      POP      {r4-r7,pc}
        0x000007b0:    2000        .       MOVS     r0,#0
        0x000007b2:    17c1        ..      ASRS     r1,r0,#31
        0x000007b4:    4305        .C      ORRS     r5,r5,r0
        0x000007b6:    430e        .C      ORRS     r6,r6,r1
        0x000007b8:    432c        ,C      ORRS     r4,r4,r5
        0x000007ba:    4337        7C      ORRS     r7,r7,r6
        0x000007bc:    9900        ..      LDR      r1,[sp,#0]
        0x000007be:    980e        ..      LDR      r0,[sp,#0x38]
        0x000007c0:    0563        c.      LSLS     r3,r4,#21
        0x000007c2:    1a40        @.      SUBS     r0,r0,r1
        0x000007c4:    0579        y.      LSLS     r1,r7,#21
        0x000007c6:    0ae4        ..      LSRS     r4,r4,#11
        0x000007c8:    2200        ."      MOVS     r2,#0
        0x000007ca:    430c        .C      ORRS     r4,r4,r1
        0x000007cc:    0afd        ..      LSRS     r5,r7,#11
        0x000007ce:    300a        .0      ADDS     r0,r0,#0xa
        0x000007d0:    d502        ..      BPL      0x7d8 ; _double_epilogue + 144
        0x000007d2:    2000        .       MOVS     r0,#0
        0x000007d4:    4601        .F      MOV      r1,r0
        0x000007d6:    e7e9        ..      B        0x7ac ; _double_epilogue + 100
        0x000007d8:    0501        ..      LSLS     r1,r0,#20
        0x000007da:    1910        ..      ADDS     r0,r2,r4
        0x000007dc:    4169        iA      ADCS     r1,r1,r5
        0x000007de:    9c0c        ..      LDR      r4,[sp,#0x30]
        0x000007e0:    9d0d        ..      LDR      r5,[sp,#0x34]
        0x000007e2:    1900        ..      ADDS     r0,r0,r4
        0x000007e4:    4169        iA      ADCS     r1,r1,r5
        0x000007e6:    f7ffffa2    ....    BL       _double_round ; 0x72e
        0x000007ea:    e7df        ..      B        0x7ac ; _double_epilogue + 100
    .text
    __decompress
    __decompress1
        0x000007ec:    b570        p.      PUSH     {r4-r6,lr}
        0x000007ee:    188c        ..      ADDS     r4,r1,r2
        0x000007f0:    7805        .x      LDRB     r5,[r0,#0]
        0x000007f2:    1c40        @.      ADDS     r0,r0,#1
        0x000007f4:    076b        k.      LSLS     r3,r5,#29
        0x000007f6:    0f5b        [.      LSRS     r3,r3,#29
        0x000007f8:    d101        ..      BNE      0x7fe ; __decompress + 18
        0x000007fa:    7803        .x      LDRB     r3,[r0,#0]
        0x000007fc:    1c40        @.      ADDS     r0,r0,#1
        0x000007fe:    112a        *.      ASRS     r2,r5,#4
        0x00000800:    d106        ..      BNE      0x810 ; __decompress + 36
        0x00000802:    7802        .x      LDRB     r2,[r0,#0]
        0x00000804:    1c40        @.      ADDS     r0,r0,#1
        0x00000806:    e003        ..      B        0x810 ; __decompress + 36
        0x00000808:    7806        .x      LDRB     r6,[r0,#0]
        0x0000080a:    700e        .p      STRB     r6,[r1,#0]
        0x0000080c:    1c40        @.      ADDS     r0,r0,#1
        0x0000080e:    1c49        I.      ADDS     r1,r1,#1
        0x00000810:    1e5b        [.      SUBS     r3,r3,#1
        0x00000812:    d1f9        ..      BNE      0x808 ; __decompress + 28
        0x00000814:    072b        +.      LSLS     r3,r5,#28
        0x00000816:    d405        ..      BMI      0x824 ; __decompress + 56
        0x00000818:    2300        .#      MOVS     r3,#0
        0x0000081a:    1e52        R.      SUBS     r2,r2,#1
        0x0000081c:    d40d        ..      BMI      0x83a ; __decompress + 78
        0x0000081e:    700b        .p      STRB     r3,[r1,#0]
        0x00000820:    1c49        I.      ADDS     r1,r1,#1
        0x00000822:    e7fa        ..      B        0x81a ; __decompress + 46
        0x00000824:    7803        .x      LDRB     r3,[r0,#0]
        0x00000826:    1c40        @.      ADDS     r0,r0,#1
        0x00000828:    1acb        ..      SUBS     r3,r1,r3
        0x0000082a:    1c92        ..      ADDS     r2,r2,#2
        0x0000082c:    e003        ..      B        0x836 ; __decompress + 74
        0x0000082e:    781d        .x      LDRB     r5,[r3,#0]
        0x00000830:    700d        .p      STRB     r5,[r1,#0]
        0x00000832:    1c49        I.      ADDS     r1,r1,#1
        0x00000834:    1c5b        [.      ADDS     r3,r3,#1
        0x00000836:    1e52        R.      SUBS     r2,r2,#1
        0x00000838:    d5f9        ..      BPL      0x82e ; __decompress + 66
        0x0000083a:    42a1        .B      CMP      r1,r4
        0x0000083c:    d3d8        ..      BCC      0x7f0 ; __decompress + 4
        0x0000083e:    2000        .       MOVS     r0,#0
        0x00000840:    bd70        p.      POP      {r4-r6,pc}
        0x00000842:    0000        ..      MOVS     r0,r0
    $t.16
    Boot_Init
        0x00000844:    b580        ..      PUSH     {r7,lr}
        0x00000846:    b088        ..      SUB      sp,sp,#0x20
        0x00000848:    9005        ..      STR      r0,[sp,#0x14]
        0x0000084a:    9805        ..      LDR      r0,[sp,#0x14]
        0x0000084c:    493a        :I      LDR      r1,[pc,#232] ; [0x938] = 0xe002ed08
        0x0000084e:    6008        .`      STR      r0,[r1,#0]
        0x00000850:    6808        .h      LDR      r0,[r1,#0]
        0x00000852:    6800        .h      LDR      r0,[r0,#0]
        0x00000854:    9006        ..      STR      r0,[sp,#0x18]
        0x00000856:    9806        ..      LDR      r0,[sp,#0x18]
        0x00000858:    f3808888    ....    MSR      MSP_NS,r0
        0x0000085c:    6808        .h      LDR      r0,[r1,#0]
        0x0000085e:    6840        @h      LDR      r0,[r0,#4]
        0x00000860:    9004        ..      STR      r0,[sp,#0x10]
        0x00000862:    9804        ..      LDR      r0,[sp,#0x10]
        0x00000864:    2101        .!      MOVS     r1,#1
        0x00000866:    4388        .C      BICS     r0,r0,r1
        0x00000868:    9003        ..      STR      r0,[sp,#0xc]
        0x0000086a:    9803        ..      LDR      r0,[sp,#0xc]
        0x0000086c:    9004        ..      STR      r0,[sp,#0x10]
        0x0000086e:    a804        ..      ADD      r0,sp,#0x10
        0x00000870:    7800        .x      LDRB     r0,[r0,#0]
        0x00000872:    07c0        ..      LSLS     r0,r0,#31
        0x00000874:    2800        .(      CMP      r0,#0
        0x00000876:    d129        ).      BNE      0x8cc ; Boot_Init + 136
        0x00000878:    e7ff        ..      B        0x87a ; Boot_Init + 54
        0x0000087a:    9804        ..      LDR      r0,[sp,#0x10]
        0x0000087c:    0f00        ..      LSRS     r0,r0,#28
        0x0000087e:    2801        .(      CMP      r0,#1
        0x00000880:    d124        $.      BNE      0x8cc ; Boot_Init + 136
        0x00000882:    e7ff        ..      B        0x884 ; Boot_Init + 64
        0x00000884:    4833        3H      LDR      r0,[pc,#204] ; [0x954] = 0x283d
        0x00000886:    f001fa9f    ....    BL       __0printf ; 0x1dc8
        0x0000088a:    9904        ..      LDR      r1,[sp,#0x10]
        0x0000088c:    2200        ."      MOVS     r2,#0
        0x0000088e:    9002        ..      STR      r0,[sp,#8]
        0x00000890:    4610        .F      MOV      r0,r2
        0x00000892:    b4f0        ..      PUSH     {r4-r7}
        0x00000894:    465f        _F      MOV      r7,r11
        0x00000896:    4656        VF      MOV      r6,r10
        0x00000898:    464d        MF      MOV      r5,r9
        0x0000089a:    4644        DF      MOV      r4,r8
        0x0000089c:    b4f0        ..      PUSH     {r4-r7}
        0x0000089e:    2201        ."      MOVS     r2,#1
        0x000008a0:    4391        .C      BICS     r1,r1,r2
        0x000008a2:    460a        .F      MOV      r2,r1
        0x000008a4:    460b        .F      MOV      r3,r1
        0x000008a6:    460c        .F      MOV      r4,r1
        0x000008a8:    460d        .F      MOV      r5,r1
        0x000008aa:    460e        .F      MOV      r6,r1
        0x000008ac:    460f        .F      MOV      r7,r1
        0x000008ae:    4688        .F      MOV      r8,r1
        0x000008b0:    4689        .F      MOV      r9,r1
        0x000008b2:    468a        .F      MOV      r10,r1
        0x000008b4:    468b        .F      MOV      r11,r1
        0x000008b6:    468c        .F      MOV      r12,r1
        0x000008b8:    f3818800    ....    MSR      APSR_nzcvq,r1 ; formerly CPSR_f
        0x000008bc:    478c        .G      BLXNS    r1
        0x000008be:    bcf0        ..      POP      {r4-r7}
        0x000008c0:    46a0        .F      MOV      r8,r4
        0x000008c2:    46a9        .F      MOV      r9,r5
        0x000008c4:    46b2        .F      MOV      r10,r6
        0x000008c6:    46bb        .F      MOV      r11,r7
        0x000008c8:    bcf0        ..      POP      {r4-r7}
        0x000008ca:    e033        3.      B        0x934 ; Boot_Init + 240
        0x000008cc:    481b        .H      LDR      r0,[pc,#108] ; [0x93c] = 0x281e
        0x000008ce:    f001fa7b    ..{.    BL       __0printf ; 0x1dc8
        0x000008d2:    491b        .I      LDR      r1,[pc,#108] ; [0x940] = 0x28c7
        0x000008d4:    9001        ..      STR      r0,[sp,#4]
        0x000008d6:    4608        .F      MOV      r0,r1
        0x000008d8:    f001fa76    ..v.    BL       __0printf ; 0x1dc8
        0x000008dc:    4919        .I      LDR      r1,[pc,#100] ; [0x944] = 0x30008200
        0x000008de:    9107        ..      STR      r1,[sp,#0x1c]
        0x000008e0:    9907        ..      LDR      r1,[sp,#0x1c]
        0x000008e2:    f3818888    ....    MSR      MSP_NS,r1
        0x000008e6:    4918        .I      LDR      r1,[pc,#96] ; [0x948] = 0x30008000
        0x000008e8:    4a18        .J      LDR      r2,[pc,#96] ; [0x94c] = 0xe7fee7ff
        0x000008ea:    600a        .`      STR      r2,[r1,#0]
        0x000008ec:    4918        .I      LDR      r1,[pc,#96] ; [0x950] = 0x30008001
        0x000008ee:    9104        ..      STR      r1,[sp,#0x10]
        0x000008f0:    9904        ..      LDR      r1,[sp,#0x10]
        0x000008f2:    2200        ."      MOVS     r2,#0
        0x000008f4:    9000        ..      STR      r0,[sp,#0]
        0x000008f6:    4610        .F      MOV      r0,r2
        0x000008f8:    b4f0        ..      PUSH     {r4-r7}
        0x000008fa:    465f        _F      MOV      r7,r11
        0x000008fc:    4656        VF      MOV      r6,r10
        0x000008fe:    464d        MF      MOV      r5,r9
        0x00000900:    4644        DF      MOV      r4,r8
        0x00000902:    b4f0        ..      PUSH     {r4-r7}
        0x00000904:    2201        ."      MOVS     r2,#1
        0x00000906:    4391        .C      BICS     r1,r1,r2
        0x00000908:    460a        .F      MOV      r2,r1
        0x0000090a:    460b        .F      MOV      r3,r1
        0x0000090c:    460c        .F      MOV      r4,r1
        0x0000090e:    460d        .F      MOV      r5,r1
        0x00000910:    460e        .F      MOV      r6,r1
        0x00000912:    460f        .F      MOV      r7,r1
        0x00000914:    4688        .F      MOV      r8,r1
        0x00000916:    4689        .F      MOV      r9,r1
        0x00000918:    468a        .F      MOV      r10,r1
        0x0000091a:    468b        .F      MOV      r11,r1
        0x0000091c:    468c        .F      MOV      r12,r1
        0x0000091e:    f3818800    ....    MSR      APSR_nzcvq,r1 ; formerly CPSR_f
        0x00000922:    478c        .G      BLXNS    r1
        0x00000924:    bcf0        ..      POP      {r4-r7}
        0x00000926:    46a0        .F      MOV      r8,r4
        0x00000928:    46a9        .F      MOV      r9,r5
        0x0000092a:    46b2        .F      MOV      r10,r6
        0x0000092c:    46bb        .F      MOV      r11,r7
        0x0000092e:    bcf0        ..      POP      {r4-r7}
        0x00000930:    e7ff        ..      B        0x932 ; Boot_Init + 238
        0x00000932:    e7fe        ..      B        0x932 ; Boot_Init + 238
        0x00000934:    b008        ..      ADD      sp,sp,#0x20
        0x00000936:    bd80        ..      POP      {r7,pc}
    $d.17
    __arm_cp.8_0
        0x00000938:    e002ed08    ....    DCD    3758288136
    __arm_cp.8_1
        0x0000093c:    0000281e    .(..    DCD    10270
    __arm_cp.8_2
        0x00000940:    000028c7    .(..    DCD    10439
    __arm_cp.8_3
        0x00000944:    30008200    ...0    DCD    805339648
    __arm_cp.8_4
        0x00000948:    30008000    ...0    DCD    805339136
    __arm_cp.8_5
        0x0000094c:    e7fee7ff    ....    DCD    3892242431
    __arm_cp.8_6
        0x00000950:    30008001    ...0    DCD    805339137
    __arm_cp.8_7
        0x00000954:    0000283d    =(..    DCD    10301
    $t.18
    __acle_se_CLK_GetCPUFreq
        0x00000958:    b5b0        ..      PUSH     {r4,r5,r7,lr}
        0x0000095a:    b092        ..      SUB      sp,sp,#0x48
        0x0000095c:    4856        VH      LDR      r0,[pc,#344] ; [0xab8] = 0x2780
        0x0000095e:    a907        ..      ADD      r1,sp,#0x1c
        0x00000960:    c83c        <.      LDM      r0!,{r2-r5}
        0x00000962:    c13c        <.      STM      r1!,{r2-r5}
        0x00000964:    c83c        <.      LDM      r0!,{r2-r5}
        0x00000966:    c13c        <.      STM      r1!,{r2-r5}
        0x00000968:    4854        TH      LDR      r0,[pc,#336] ; [0xabc] = 0x4020201
        0x0000096a:    9001        ..      STR      r0,[sp,#4]
        0x0000096c:    4854        TH      LDR      r0,[pc,#336] ; [0xac0] = 0x40000208
        0x0000096e:    6800        .h      LDR      r0,[r0,#0]
        0x00000970:    2102        .!      MOVS     r1,#2
        0x00000972:    4008        .@      ANDS     r0,r0,r1
        0x00000974:    9000        ..      STR      r0,[sp,#0]
        0x00000976:    4853        SH      LDR      r0,[pc,#332] ; [0xac4] = 0x40000240
        0x00000978:    6800        .h      LDR      r0,[r0,#0]
        0x0000097a:    9006        ..      STR      r0,[sp,#0x18]
        0x0000097c:    a806        ..      ADD      r0,sp,#0x18
        0x0000097e:    7880        .x      LDRB     r0,[r0,#2]
        0x00000980:    2105        .!      MOVS     r1,#5
        0x00000982:    4208        .B      TST      r0,r1
        0x00000984:    d004        ..      BEQ      0x990 ; __acle_se_CLK_GetCPUFreq + 56
        0x00000986:    e7ff        ..      B        0x988 ; __acle_se_CLK_GetCPUFreq + 48
        0x00000988:    4850        PH      LDR      r0,[pc,#320] ; [0xacc] = 0x20000004
        0x0000098a:    2100        .!      MOVS     r1,#0
        0x0000098c:    6001        .`      STR      r1,[r0,#0]
        0x0000098e:    e037        7.      B        0xa00 ; __acle_se_CLK_GetCPUFreq + 168
        0x00000990:    a806        ..      ADD      r0,sp,#0x18
        0x00000992:    7880        .x      LDRB     r0,[r0,#2]
        0x00000994:    0700        ..      LSLS     r0,r0,#28
        0x00000996:    2800        .(      CMP      r0,#0
        0x00000998:    d503        ..      BPL      0x9a2 ; __acle_se_CLK_GetCPUFreq + 74
        0x0000099a:    e7ff        ..      B        0x99c ; __acle_se_CLK_GetCPUFreq + 68
        0x0000099c:    4866        fH      LDR      r0,[pc,#408] ; [0xb38] = 0xb71b00
        0x0000099e:    9005        ..      STR      r0,[sp,#0x14]
        0x000009a0:    e002        ..      B        0x9a8 ; __acle_se_CLK_GetCPUFreq + 80
        0x000009a2:    4865        eH      LDR      r0,[pc,#404] ; [0xb38] = 0xb71b00
        0x000009a4:    9005        ..      STR      r0,[sp,#0x14]
        0x000009a6:    e7ff        ..      B        0x9a8 ; __acle_se_CLK_GetCPUFreq + 80
        0x000009a8:    a806        ..      ADD      r0,sp,#0x18
        0x000009aa:    7880        .x      LDRB     r0,[r0,#2]
        0x000009ac:    0780        ..      LSLS     r0,r0,#30
        0x000009ae:    2800        .(      CMP      r0,#0
        0x000009b0:    d504        ..      BPL      0x9bc ; __acle_se_CLK_GetCPUFreq + 100
        0x000009b2:    e7ff        ..      B        0x9b4 ; __acle_se_CLK_GetCPUFreq + 92
        0x000009b4:    9805        ..      LDR      r0,[sp,#0x14]
        0x000009b6:    4945        EI      LDR      r1,[pc,#276] ; [0xacc] = 0x20000004
        0x000009b8:    6008        .`      STR      r0,[r1,#0]
        0x000009ba:    e020         .      B        0x9fe ; __acle_se_CLK_GetCPUFreq + 166
        0x000009bc:    a806        ..      ADD      r0,sp,#0x18
        0x000009be:    8800        ..      LDRH     r0,[r0,#0]
        0x000009c0:    0b80        ..      LSRS     r0,r0,#14
        0x000009c2:    a901        ..      ADD      r1,sp,#4
        0x000009c4:    1808        ..      ADDS     r0,r1,r0
        0x000009c6:    7800        .x      LDRB     r0,[r0,#0]
        0x000009c8:    9002        ..      STR      r0,[sp,#8]
        0x000009ca:    9806        ..      LDR      r0,[sp,#0x18]
        0x000009cc:    493e        >I      LDR      r1,[pc,#248] ; [0xac8] = 0x1ff
        0x000009ce:    4008        .@      ANDS     r0,r0,r1
        0x000009d0:    1c80        ..      ADDS     r0,r0,#2
        0x000009d2:    9004        ..      STR      r0,[sp,#0x10]
        0x000009d4:    9806        ..      LDR      r0,[sp,#0x18]
        0x000009d6:    f6436100    C..a    MOVW     r1,#0x3e00
        0x000009da:    4008        .@      ANDS     r0,r0,r1
        0x000009dc:    0a40        @.      LSRS     r0,r0,#9
        0x000009de:    1c40        @.      ADDS     r0,r0,#1
        0x000009e0:    9003        ..      STR      r0,[sp,#0xc]
        0x000009e2:    9805        ..      LDR      r0,[sp,#0x14]
        0x000009e4:    0880        ..      LSRS     r0,r0,#2
        0x000009e6:    9904        ..      LDR      r1,[sp,#0x10]
        0x000009e8:    4348        HC      MULS     r0,r1,r0
        0x000009ea:    0040        @.      LSLS     r0,r0,#1
        0x000009ec:    9903        ..      LDR      r1,[sp,#0xc]
        0x000009ee:    9a02        ..      LDR      r2,[sp,#8]
        0x000009f0:    434a        JC      MULS     r2,r1,r2
        0x000009f2:    fbb0f0f2    ....    UDIV     r0,r0,r2
        0x000009f6:    0080        ..      LSLS     r0,r0,#2
        0x000009f8:    4934        4I      LDR      r1,[pc,#208] ; [0xacc] = 0x20000004
        0x000009fa:    6008        .`      STR      r0,[r1,#0]
        0x000009fc:    e7ff        ..      B        0x9fe ; __acle_se_CLK_GetCPUFreq + 166
        0x000009fe:    e7ff        ..      B        0xa00 ; __acle_se_CLK_GetCPUFreq + 168
        0x00000a00:    48b1        .H      LDR      r0,[pc,#708] ; [0xcc8] = 0x40000210
        0x00000a02:    6800        .h      LDR      r0,[r0,#0]
        0x00000a04:    2107        .!      MOVS     r1,#7
        0x00000a06:    4008        .@      ANDS     r0,r0,r1
        0x00000a08:    9010        ..      STR      r0,[sp,#0x40]
        0x00000a0a:    9810        ..      LDR      r0,[sp,#0x40]
        0x00000a0c:    2801        .(      CMP      r0,#1
        0x00000a0e:    d123        #.      BNE      0xa58 ; __acle_se_CLK_GetCPUFreq + 256
        0x00000a10:    e7ff        ..      B        0xa12 ; __acle_se_CLK_GetCPUFreq + 186
        0x00000a12:    9800        ..      LDR      r0,[sp,#0]
        0x00000a14:    2800        .(      CMP      r0,#0
        0x00000a16:    d106        ..      BNE      0xa26 ; __acle_se_CLK_GetCPUFreq + 206
        0x00000a18:    e7ff        ..      B        0xa1a ; __acle_se_CLK_GetCPUFreq + 194
        0x00000a1a:    4829        )H      LDR      r0,[pc,#164] ; [0xac0] = 0x40000208
        0x00000a1c:    6801        .h      LDR      r1,[r0,#0]
        0x00000a1e:    2202        ."      MOVS     r2,#2
        0x00000a20:    4311        .C      ORRS     r1,r1,r2
        0x00000a22:    6001        .`      STR      r1,[r0,#0]
        0x00000a24:    e7ff        ..      B        0xa26 ; __acle_se_CLK_GetCPUFreq + 206
        0x00000a26:    482a        *H      LDR      r0,[pc,#168] ; [0xad0] = 0x40041100
        0x00000a28:    6800        .h      LDR      r0,[r0,#0]
        0x00000a2a:    0600        ..      LSLS     r0,r0,#24
        0x00000a2c:    2800        .(      CMP      r0,#0
        0x00000a2e:    d504        ..      BPL      0xa3a ; __acle_se_CLK_GetCPUFreq + 226
        0x00000a30:    e7ff        ..      B        0xa32 ; __acle_se_CLK_GetCPUFreq + 218
        0x00000a32:    f6475000    G..P    MOVW     r0,#0x7d00
        0x00000a36:    9011        ..      STR      r0,[sp,#0x44]
        0x00000a38:    e003        ..      B        0xa42 ; __acle_se_CLK_GetCPUFreq + 234
        0x00000a3a:    f2480000    H...    MOVW     r0,#0x8000
        0x00000a3e:    9011        ..      STR      r0,[sp,#0x44]
        0x00000a40:    e7ff        ..      B        0xa42 ; __acle_se_CLK_GetCPUFreq + 234
        0x00000a42:    9800        ..      LDR      r0,[sp,#0]
        0x00000a44:    2800        .(      CMP      r0,#0
        0x00000a46:    d106        ..      BNE      0xa56 ; __acle_se_CLK_GetCPUFreq + 254
        0x00000a48:    e7ff        ..      B        0xa4a ; __acle_se_CLK_GetCPUFreq + 242
        0x00000a4a:    481d        .H      LDR      r0,[pc,#116] ; [0xac0] = 0x40000208
        0x00000a4c:    6801        .h      LDR      r1,[r0,#0]
        0x00000a4e:    2202        ."      MOVS     r2,#2
        0x00000a50:    4391        .C      BICS     r1,r1,r2
        0x00000a52:    6001        .`      STR      r1,[r0,#0]
        0x00000a54:    e7ff        ..      B        0xa56 ; __acle_se_CLK_GetCPUFreq + 254
        0x00000a56:    e00e        ..      B        0xa76 ; __acle_se_CLK_GetCPUFreq + 286
        0x00000a58:    9810        ..      LDR      r0,[sp,#0x40]
        0x00000a5a:    2802        .(      CMP      r0,#2
        0x00000a5c:    d104        ..      BNE      0xa68 ; __acle_se_CLK_GetCPUFreq + 272
        0x00000a5e:    e7ff        ..      B        0xa60 ; __acle_se_CLK_GetCPUFreq + 264
        0x00000a60:    481a        .H      LDR      r0,[pc,#104] ; [0xacc] = 0x20000004
        0x00000a62:    6800        .h      LDR      r0,[r0,#0]
        0x00000a64:    9011        ..      STR      r0,[sp,#0x44]
        0x00000a66:    e005        ..      B        0xa74 ; __acle_se_CLK_GetCPUFreq + 284
        0x00000a68:    9810        ..      LDR      r0,[sp,#0x40]
        0x00000a6a:    0080        ..      LSLS     r0,r0,#2
        0x00000a6c:    a907        ..      ADD      r1,sp,#0x1c
        0x00000a6e:    5808        .X      LDR      r0,[r1,r0]
        0x00000a70:    9011        ..      STR      r0,[sp,#0x44]
        0x00000a72:    e7ff        ..      B        0xa74 ; __acle_se_CLK_GetCPUFreq + 284
        0x00000a74:    e7ff        ..      B        0xa76 ; __acle_se_CLK_GetCPUFreq + 286
        0x00000a76:    485a        ZH      LDR      r0,[pc,#360] ; [0xbe0] = 0x40000220
        0x00000a78:    6800        .h      LDR      r0,[r0,#0]
        0x00000a7a:    210f        .!      MOVS     r1,#0xf
        0x00000a7c:    4008        .@      ANDS     r0,r0,r1
        0x00000a7e:    1c40        @.      ADDS     r0,r0,#1
        0x00000a80:    900f        ..      STR      r0,[sp,#0x3c]
        0x00000a82:    9811        ..      LDR      r0,[sp,#0x44]
        0x00000a84:    990f        ..      LDR      r1,[sp,#0x3c]
        0x00000a86:    fbb0f0f1    ....    UDIV     r0,r0,r1
        0x00000a8a:    49a6        .I      LDR      r1,[pc,#664] ; [0xd24] = 0x2000000c
        0x00000a8c:    6008        .`      STR      r0,[r1,#0]
        0x00000a8e:    6808        .h      LDR      r0,[r1,#0]
        0x00000a90:    4a10        .J      LDR      r2,[pc,#64] ; [0xad4] = 0x7a120
        0x00000a92:    1880        ..      ADDS     r0,r0,r2
        0x00000a94:    4a10        .J      LDR      r2,[pc,#64] ; [0xad8] = 0xf4240
        0x00000a96:    fbb0f0f2    ....    UDIV     r0,r0,r2
        0x00000a9a:    4a10        .J      LDR      r2,[pc,#64] ; [0xadc] = 0x20000000
        0x00000a9c:    6010        .`      STR      r0,[r2,#0]
        0x00000a9e:    6808        .h      LDR      r0,[r1,#0]
        0x00000aa0:    b012        ..      ADD      sp,sp,#0x48
        0x00000aa2:    bcb0        ..      POP      {r4,r5,r7}
        0x00000aa4:    bc02        ..      POP      {r1}
        0x00000aa6:    468e        .F      MOV      lr,r1
        0x00000aa8:    4671        qF      MOV      r1,lr
        0x00000aaa:    4672        rF      MOV      r2,lr
        0x00000aac:    4673        sF      MOV      r3,lr
        0x00000aae:    46f4        .F      MOV      r12,lr
        0x00000ab0:    f38e8800    ....    MSR      APSR_nzcvq,lr ; formerly CPSR_f
        0x00000ab4:    4774        tG      BXNS     lr
        0x00000ab6:    46c0        .F      MOV      r8,r8
    $d.19
    __arm_cp.9_0
        0x00000ab8:    00002780    .'..    DCD    10112
    __arm_cp.9_1
        0x00000abc:    04020201    ....    DCD    67240449
    __arm_cp.9_2
        0x00000ac0:    40000208    ...@    DCD    1073742344
    __arm_cp.9_3
        0x00000ac4:    40000240    @..@    DCD    1073742400
    __arm_cp.9_5
        0x00000ac8:    000001ff    ....    DCD    511
    __arm_cp.9_6
        0x00000acc:    20000004    ...     DCD    536870916
    __arm_cp.9_8
        0x00000ad0:    40041100    ...@    DCD    1074008320
    __arm_cp.9_11
        0x00000ad4:    0007a120     ...    DCD    500000
    __arm_cp.9_12
        0x00000ad8:    000f4240    @B..    DCD    1000000
    __arm_cp.9_13
        0x00000adc:    20000000    ...     DCD    536870912
    $t.12
    __acle_se_CLK_GetHCLKFreq
        0x00000ae0:    b580        ..      PUSH     {r7,lr}
        0x00000ae2:    f001f84d    ..M.    BL       SystemCoreClockUpdate ; 0x1b80
        0x00000ae6:    488f        .H      LDR      r0,[pc,#572] ; [0xd24] = 0x2000000c
        0x00000ae8:    6800        .h      LDR      r0,[r0,#0]
        0x00000aea:    bc80        ..      POP      {r7}
        0x00000aec:    bc02        ..      POP      {r1}
        0x00000aee:    468e        .F      MOV      lr,r1
        0x00000af0:    4671        qF      MOV      r1,lr
        0x00000af2:    4672        rF      MOV      r2,lr
        0x00000af4:    4673        sF      MOV      r3,lr
        0x00000af6:    46f4        .F      MOV      r12,lr
        0x00000af8:    f38e8800    ....    MSR      APSR_nzcvq,lr ; formerly CPSR_f
        0x00000afc:    4774        tG      BXNS     lr
        0x00000afe:    46c0        .F      MOV      r8,r8
    __acle_se_CLK_GetHXTFreq
        0x00000b00:    b082        ..      SUB      sp,sp,#8
        0x00000b02:    2000        .       MOVS     r0,#0
        0x00000b04:    9001        ..      STR      r0,[sp,#4]
        0x00000b06:    481b        .H      LDR      r0,[pc,#108] ; [0xb74] = 0x40000200
        0x00000b08:    6800        .h      LDR      r0,[r0,#0]
        0x00000b0a:    2101        .!      MOVS     r1,#1
        0x00000b0c:    4008        .@      ANDS     r0,r0,r1
        0x00000b0e:    9000        ..      STR      r0,[sp,#0]
        0x00000b10:    9800        ..      LDR      r0,[sp,#0]
        0x00000b12:    2800        .(      CMP      r0,#0
        0x00000b14:    d003        ..      BEQ      0xb1e ; __acle_se_CLK_GetHXTFreq + 30
        0x00000b16:    e7ff        ..      B        0xb18 ; __acle_se_CLK_GetHXTFreq + 24
        0x00000b18:    48ae        .H      LDR      r0,[pc,#696] ; [0xdd4] = 0xb71b00
        0x00000b1a:    9001        ..      STR      r0,[sp,#4]
        0x00000b1c:    e002        ..      B        0xb24 ; __acle_se_CLK_GetHXTFreq + 36
        0x00000b1e:    2000        .       MOVS     r0,#0
        0x00000b20:    9001        ..      STR      r0,[sp,#4]
        0x00000b22:    e7ff        ..      B        0xb24 ; __acle_se_CLK_GetHXTFreq + 36
        0x00000b24:    9801        ..      LDR      r0,[sp,#4]
        0x00000b26:    b002        ..      ADD      sp,sp,#8
        0x00000b28:    4671        qF      MOV      r1,lr
        0x00000b2a:    4672        rF      MOV      r2,lr
        0x00000b2c:    4673        sF      MOV      r3,lr
        0x00000b2e:    46f4        .F      MOV      r12,lr
        0x00000b30:    f38e8800    ....    MSR      APSR_nzcvq,lr ; formerly CPSR_f
        0x00000b34:    4774        tG      BXNS     lr
        0x00000b36:    46c0        .F      MOV      r8,r8
    $d.9
    __arm_cp.4_1
        0x00000b38:    00b71b00    ....    DCD    12000000
    $t.10
    __acle_se_CLK_GetLXTFreq
        0x00000b3c:    b082        ..      SUB      sp,sp,#8
        0x00000b3e:    2000        .       MOVS     r0,#0
        0x00000b40:    9001        ..      STR      r0,[sp,#4]
        0x00000b42:    480c        .H      LDR      r0,[pc,#48] ; [0xb74] = 0x40000200
        0x00000b44:    6800        .h      LDR      r0,[r0,#0]
        0x00000b46:    2102        .!      MOVS     r1,#2
        0x00000b48:    4008        .@      ANDS     r0,r0,r1
        0x00000b4a:    9000        ..      STR      r0,[sp,#0]
        0x00000b4c:    9800        ..      LDR      r0,[sp,#0]
        0x00000b4e:    2800        .(      CMP      r0,#0
        0x00000b50:    d004        ..      BEQ      0xb5c ; __acle_se_CLK_GetLXTFreq + 32
        0x00000b52:    e7ff        ..      B        0xb54 ; __acle_se_CLK_GetLXTFreq + 24
        0x00000b54:    f2480000    H...    MOVW     r0,#0x8000
        0x00000b58:    9001        ..      STR      r0,[sp,#4]
        0x00000b5a:    e002        ..      B        0xb62 ; __acle_se_CLK_GetLXTFreq + 38
        0x00000b5c:    2000        .       MOVS     r0,#0
        0x00000b5e:    9001        ..      STR      r0,[sp,#4]
        0x00000b60:    e7ff        ..      B        0xb62 ; __acle_se_CLK_GetLXTFreq + 38
        0x00000b62:    9801        ..      LDR      r0,[sp,#4]
        0x00000b64:    b002        ..      ADD      sp,sp,#8
        0x00000b66:    4671        qF      MOV      r1,lr
        0x00000b68:    4672        rF      MOV      r2,lr
        0x00000b6a:    4673        sF      MOV      r3,lr
        0x00000b6c:    46f4        .F      MOV      r12,lr
        0x00000b6e:    f38e8800    ....    MSR      APSR_nzcvq,lr ; formerly CPSR_f
        0x00000b72:    4774        tG      BXNS     lr
    $d.11
    __arm_cp.5_0
        0x00000b74:    40000200    ...@    DCD    1073742336
    $t.58
    __acle_se_CLK_GetModuleClockDivider
        0x00000b78:    b087        ..      SUB      sp,sp,#0x1c
        0x00000b7a:    9006        ..      STR      r0,[sp,#0x18]
        0x00000b7c:    2000        .       MOVS     r0,#0
        0x00000b7e:    9005        ..      STR      r0,[sp,#0x14]
        0x00000b80:    9004        ..      STR      r0,[sp,#0x10]
        0x00000b82:    4816        .H      LDR      r0,[pc,#88] ; [0xbdc] = 0x2770
        0x00000b84:    68c1        .h      LDR      r1,[r0,#0xc]
        0x00000b86:    9103        ..      STR      r1,[sp,#0xc]
        0x00000b88:    6881        .h      LDR      r1,[r0,#8]
        0x00000b8a:    9102        ..      STR      r1,[sp,#8]
        0x00000b8c:    6841        Ah      LDR      r1,[r0,#4]
        0x00000b8e:    9101        ..      STR      r1,[sp,#4]
        0x00000b90:    6800        .h      LDR      r0,[r0,#0]
        0x00000b92:    9000        ..      STR      r0,[sp,#0]
        0x00000b94:    9806        ..      LDR      r0,[sp,#0x18]
        0x00000b96:    0a80        ..      LSRS     r0,r0,#10
        0x00000b98:    0600        ..      LSLS     r0,r0,#24
        0x00000b9a:    2800        .(      CMP      r0,#0
        0x00000b9c:    d015        ..      BEQ      0xbca ; __acle_se_CLK_GetModuleClockDivider + 82
        0x00000b9e:    e7ff        ..      B        0xba0 ; __acle_se_CLK_GetModuleClockDivider + 40
        0x00000ba0:    a806        ..      ADD      r0,sp,#0x18
        0x00000ba2:    8840        @.      LDRH     r0,[r0,#2]
        0x00000ba4:    210c        .!      MOVS     r1,#0xc
        0x00000ba6:    4008        .@      ANDS     r0,r0,r1
        0x00000ba8:    4669        iF      MOV      r1,sp
        0x00000baa:    5808        .X      LDR      r0,[r1,r0]
        0x00000bac:    490c        .I      LDR      r1,[pc,#48] ; [0xbe0] = 0x40000220
        0x00000bae:    1840        @.      ADDS     r0,r0,r1
        0x00000bb0:    9004        ..      STR      r0,[sp,#0x10]
        0x00000bb2:    9804        ..      LDR      r0,[sp,#0x10]
        0x00000bb4:    6800        .h      LDR      r0,[r0,#0]
        0x00000bb6:    9906        ..      LDR      r1,[sp,#0x18]
        0x00000bb8:    0a8a        ..      LSRS     r2,r1,#10
        0x00000bba:    b2d2        ..      UXTB     r2,r2
        0x00000bbc:    0589        ..      LSLS     r1,r1,#22
        0x00000bbe:    0ec9        ..      LSRS     r1,r1,#27
        0x00000bc0:    408a        .@      LSLS     r2,r2,r1
        0x00000bc2:    4010        .@      ANDS     r0,r0,r2
        0x00000bc4:    40c8        .@      LSRS     r0,r0,r1
        0x00000bc6:    9005        ..      STR      r0,[sp,#0x14]
        0x00000bc8:    e7ff        ..      B        0xbca ; __acle_se_CLK_GetModuleClockDivider + 82
        0x00000bca:    9805        ..      LDR      r0,[sp,#0x14]
        0x00000bcc:    b007        ..      ADD      sp,sp,#0x1c
        0x00000bce:    4671        qF      MOV      r1,lr
        0x00000bd0:    4672        rF      MOV      r2,lr
        0x00000bd2:    4673        sF      MOV      r3,lr
        0x00000bd4:    46f4        .F      MOV      r12,lr
        0x00000bd6:    f38e8800    ....    MSR      APSR_nzcvq,lr ; formerly CPSR_f
        0x00000bda:    4774        tG      BXNS     lr
    $d.59
    __arm_cp.29_0
        0x00000bdc:    00002770    p'..    DCD    10096
    __arm_cp.29_1
        0x00000be0:    40000220     ..@    DCD    1073742368
    $t.56
    __acle_se_CLK_GetModuleClockSource
        0x00000be4:    b087        ..      SUB      sp,sp,#0x1c
        0x00000be6:    9006        ..      STR      r0,[sp,#0x18]
        0x00000be8:    2000        .       MOVS     r0,#0
        0x00000bea:    9005        ..      STR      r0,[sp,#0x14]
        0x00000bec:    9004        ..      STR      r0,[sp,#0x10]
        0x00000bee:    4831        1H      LDR      r0,[pc,#196] ; [0xcb4] = 0x2760
        0x00000bf0:    68c1        .h      LDR      r1,[r0,#0xc]
        0x00000bf2:    9103        ..      STR      r1,[sp,#0xc]
        0x00000bf4:    6881        .h      LDR      r1,[r0,#8]
        0x00000bf6:    9102        ..      STR      r1,[sp,#8]
        0x00000bf8:    6841        Ah      LDR      r1,[r0,#4]
        0x00000bfa:    9101        ..      STR      r1,[sp,#4]
        0x00000bfc:    6800        .h      LDR      r0,[r0,#0]
        0x00000bfe:    9000        ..      STR      r0,[sp,#0]
        0x00000c00:    9806        ..      LDR      r0,[sp,#0x18]
        0x00000c02:    492d        -I      LDR      r1,[pc,#180] ; [0xcb8] = 0x80000010
        0x00000c04:    4288        .B      CMP      r0,r1
        0x00000c06:    d106        ..      BNE      0xc16 ; __acle_se_CLK_GetModuleClockSource + 50
        0x00000c08:    e7ff        ..      B        0xc0a ; __acle_se_CLK_GetModuleClockSource + 38
        0x00000c0a:    4830        0H      LDR      r0,[pc,#192] ; [0xccc] = 0x40000218
        0x00000c0c:    6800        .h      LDR      r0,[r0,#0]
        0x00000c0e:    2101        .!      MOVS     r1,#1
        0x00000c10:    4008        .@      ANDS     r0,r0,r1
        0x00000c12:    9005        ..      STR      r0,[sp,#0x14]
        0x00000c14:    e044        D.      B        0xca0 ; __acle_se_CLK_GetModuleClockSource + 188
        0x00000c16:    9806        ..      LDR      r0,[sp,#0x18]
        0x00000c18:    4928        (I      LDR      r1,[pc,#160] ; [0xcbc] = 0x80000011
        0x00000c1a:    4288        .B      CMP      r0,r1
        0x00000c1c:    d107        ..      BNE      0xc2e ; __acle_se_CLK_GetModuleClockSource + 74
        0x00000c1e:    e7ff        ..      B        0xc20 ; __acle_se_CLK_GetModuleClockSource + 60
        0x00000c20:    482a        *H      LDR      r0,[pc,#168] ; [0xccc] = 0x40000218
        0x00000c22:    6800        .h      LDR      r0,[r0,#0]
        0x00000c24:    2102        .!      MOVS     r1,#2
        0x00000c26:    4008        .@      ANDS     r0,r0,r1
        0x00000c28:    0840        @.      LSRS     r0,r0,#1
        0x00000c2a:    9005        ..      STR      r0,[sp,#0x14]
        0x00000c2c:    e037        7.      B        0xc9e ; __acle_se_CLK_GetModuleClockSource + 186
        0x00000c2e:    9806        ..      LDR      r0,[sp,#0x18]
        0x00000c30:    4923        #I      LDR      r1,[pc,#140] ; [0xcc0] = 0x80000012
        0x00000c32:    4288        .B      CMP      r0,r1
        0x00000c34:    d108        ..      BNE      0xc48 ; __acle_se_CLK_GetModuleClockSource + 100
        0x00000c36:    e7ff        ..      B        0xc38 ; __acle_se_CLK_GetModuleClockSource + 84
        0x00000c38:    4824        $H      LDR      r0,[pc,#144] ; [0xccc] = 0x40000218
        0x00000c3a:    6800        .h      LDR      r0,[r0,#0]
        0x00000c3c:    f2401100    @...    MOVW     r1,#0x100
        0x00000c40:    4008        .@      ANDS     r0,r0,r1
        0x00000c42:    0a00        ..      LSRS     r0,r0,#8
        0x00000c44:    9005        ..      STR      r0,[sp,#0x14]
        0x00000c46:    e029        ).      B        0xc9c ; __acle_se_CLK_GetModuleClockSource + 184
        0x00000c48:    9806        ..      LDR      r0,[sp,#0x18]
        0x00000c4a:    491e        .I      LDR      r1,[pc,#120] ; [0xcc4] = 0x80000013
        0x00000c4c:    4288        .B      CMP      r0,r1
        0x00000c4e:    d108        ..      BNE      0xc62 ; __acle_se_CLK_GetModuleClockSource + 126
        0x00000c50:    e7ff        ..      B        0xc52 ; __acle_se_CLK_GetModuleClockSource + 110
        0x00000c52:    481e        .H      LDR      r0,[pc,#120] ; [0xccc] = 0x40000218
        0x00000c54:    6800        .h      LDR      r0,[r0,#0]
        0x00000c56:    f2402100    @..!    MOVW     r1,#0x200
        0x00000c5a:    4008        .@      ANDS     r0,r0,r1
        0x00000c5c:    0a40        @.      LSRS     r0,r0,#9
        0x00000c5e:    9005        ..      STR      r0,[sp,#0x14]
        0x00000c60:    e01b        ..      B        0xc9a ; __acle_se_CLK_GetModuleClockSource + 182
        0x00000c62:    9806        ..      LDR      r0,[sp,#0x18]
        0x00000c64:    0100        ..      LSLS     r0,r0,#4
        0x00000c66:    0f40        @.      LSRS     r0,r0,#29
        0x00000c68:    2800        .(      CMP      r0,#0
        0x00000c6a:    d015        ..      BEQ      0xc98 ; __acle_se_CLK_GetModuleClockSource + 180
        0x00000c6c:    e7ff        ..      B        0xc6e ; __acle_se_CLK_GetModuleClockSource + 138
        0x00000c6e:    9806        ..      LDR      r0,[sp,#0x18]
        0x00000c70:    0e80        ..      LSRS     r0,r0,#26
        0x00000c72:    210c        .!      MOVS     r1,#0xc
        0x00000c74:    4008        .@      ANDS     r0,r0,r1
        0x00000c76:    4669        iF      MOV      r1,sp
        0x00000c78:    5808        .X      LDR      r0,[r1,r0]
        0x00000c7a:    4913        .I      LDR      r1,[pc,#76] ; [0xcc8] = 0x40000210
        0x00000c7c:    1840        @.      ADDS     r0,r0,r1
        0x00000c7e:    9004        ..      STR      r0,[sp,#0x10]
        0x00000c80:    9804        ..      LDR      r0,[sp,#0x10]
        0x00000c82:    6800        .h      LDR      r0,[r0,#0]
        0x00000c84:    9906        ..      LDR      r1,[sp,#0x18]
        0x00000c86:    010a        ..      LSLS     r2,r1,#4
        0x00000c88:    0f52        R.      LSRS     r2,r2,#29
        0x00000c8a:    01c9        ..      LSLS     r1,r1,#7
        0x00000c8c:    0ec9        ..      LSRS     r1,r1,#27
        0x00000c8e:    408a        .@      LSLS     r2,r2,r1
        0x00000c90:    4010        .@      ANDS     r0,r0,r2
        0x00000c92:    40c8        .@      LSRS     r0,r0,r1
        0x00000c94:    9005        ..      STR      r0,[sp,#0x14]
        0x00000c96:    e7ff        ..      B        0xc98 ; __acle_se_CLK_GetModuleClockSource + 180
        0x00000c98:    e7ff        ..      B        0xc9a ; __acle_se_CLK_GetModuleClockSource + 182
        0x00000c9a:    e7ff        ..      B        0xc9c ; __acle_se_CLK_GetModuleClockSource + 184
        0x00000c9c:    e7ff        ..      B        0xc9e ; __acle_se_CLK_GetModuleClockSource + 186
        0x00000c9e:    e7ff        ..      B        0xca0 ; __acle_se_CLK_GetModuleClockSource + 188
        0x00000ca0:    9805        ..      LDR      r0,[sp,#0x14]
        0x00000ca2:    b007        ..      ADD      sp,sp,#0x1c
        0x00000ca4:    4671        qF      MOV      r1,lr
        0x00000ca6:    4672        rF      MOV      r2,lr
        0x00000ca8:    4673        sF      MOV      r3,lr
        0x00000caa:    46f4        .F      MOV      r12,lr
        0x00000cac:    f38e8800    ....    MSR      APSR_nzcvq,lr ; formerly CPSR_f
        0x00000cb0:    4774        tG      BXNS     lr
        0x00000cb2:    46c0        .F      MOV      r8,r8
    $d.57
    __arm_cp.28_0
        0x00000cb4:    00002760    `'..    DCD    10080
    __arm_cp.28_1
        0x00000cb8:    80000010    ....    DCD    2147483664
    __arm_cp.28_2
        0x00000cbc:    80000011    ....    DCD    2147483665
    __arm_cp.28_3
        0x00000cc0:    80000012    ....    DCD    2147483666
    __arm_cp.28_4
        0x00000cc4:    80000013    ....    DCD    2147483667
    __arm_cp.28_5
        0x00000cc8:    40000210    ...@    DCD    1073742352
    __arm_cp.28_6
        0x00000ccc:    40000218    ...@    DCD    1073742360
    $t.14
    __acle_se_CLK_GetPCLK0Freq
        0x00000cd0:    b580        ..      PUSH     {r7,lr}
        0x00000cd2:    f000ff55    ..U.    BL       SystemCoreClockUpdate ; 0x1b80
        0x00000cd6:    4813        .H      LDR      r0,[pc,#76] ; [0xd24] = 0x2000000c
        0x00000cd8:    6800        .h      LDR      r0,[r0,#0]
        0x00000cda:    4913        .I      LDR      r1,[pc,#76] ; [0xd28] = 0x40000234
        0x00000cdc:    6809        .h      LDR      r1,[r1,#0]
        0x00000cde:    2207        ."      MOVS     r2,#7
        0x00000ce0:    4011        .@      ANDS     r1,r1,r2
        0x00000ce2:    40c8        .@      LSRS     r0,r0,r1
        0x00000ce4:    bc80        ..      POP      {r7}
        0x00000ce6:    bc02        ..      POP      {r1}
        0x00000ce8:    468e        .F      MOV      lr,r1
        0x00000cea:    4671        qF      MOV      r1,lr
        0x00000cec:    4672        rF      MOV      r2,lr
        0x00000cee:    4673        sF      MOV      r3,lr
        0x00000cf0:    46f4        .F      MOV      r12,lr
        0x00000cf2:    f38e8800    ....    MSR      APSR_nzcvq,lr ; formerly CPSR_f
        0x00000cf6:    4774        tG      BXNS     lr
    __acle_se_CLK_GetPCLK1Freq
        0x00000cf8:    b580        ..      PUSH     {r7,lr}
        0x00000cfa:    f000ff41    ..A.    BL       SystemCoreClockUpdate ; 0x1b80
        0x00000cfe:    4809        .H      LDR      r0,[pc,#36] ; [0xd24] = 0x2000000c
        0x00000d00:    6800        .h      LDR      r0,[r0,#0]
        0x00000d02:    4909        .I      LDR      r1,[pc,#36] ; [0xd28] = 0x40000234
        0x00000d04:    6809        .h      LDR      r1,[r1,#0]
        0x00000d06:    2270        p"      MOVS     r2,#0x70
        0x00000d08:    4011        .@      ANDS     r1,r1,r2
        0x00000d0a:    0909        ..      LSRS     r1,r1,#4
        0x00000d0c:    40c8        .@      LSRS     r0,r0,r1
        0x00000d0e:    bc80        ..      POP      {r7}
        0x00000d10:    bc02        ..      POP      {r1}
        0x00000d12:    468e        .F      MOV      lr,r1
        0x00000d14:    4671        qF      MOV      r1,lr
        0x00000d16:    4672        rF      MOV      r2,lr
        0x00000d18:    4673        sF      MOV      r3,lr
        0x00000d1a:    46f4        .F      MOV      r12,lr
        0x00000d1c:    f38e8800    ....    MSR      APSR_nzcvq,lr ; formerly CPSR_f
        0x00000d20:    4774        tG      BXNS     lr
        0x00000d22:    46c0        .F      MOV      r8,r8
    $d.17
    __arm_cp.8_0
        0x00000d24:    2000000c    ...     DCD    536870924
    __arm_cp.8_1
        0x00000d28:    40000234    4..@    DCD    1073742388
    $t.54
    __acle_se_CLK_GetPLLClockFreq
        0x00000d2c:    b087        ..      SUB      sp,sp,#0x1c
        0x00000d2e:    2000        .       MOVS     r0,#0
        0x00000d30:    9006        ..      STR      r0,[sp,#0x18]
        0x00000d32:    4826        &H      LDR      r0,[pc,#152] ; [0xdcc] = 0x4020201
        0x00000d34:    9000        ..      STR      r0,[sp,#0]
        0x00000d36:    4826        &H      LDR      r0,[pc,#152] ; [0xdd0] = 0x40000240
        0x00000d38:    6800        .h      LDR      r0,[r0,#0]
        0x00000d3a:    9005        ..      STR      r0,[sp,#0x14]
        0x00000d3c:    a805        ..      ADD      r0,sp,#0x14
        0x00000d3e:    7880        .x      LDRB     r0,[r0,#2]
        0x00000d40:    2105        .!      MOVS     r1,#5
        0x00000d42:    4208        .B      TST      r0,r1
        0x00000d44:    d003        ..      BEQ      0xd4e ; __acle_se_CLK_GetPLLClockFreq + 34
        0x00000d46:    e7ff        ..      B        0xd48 ; __acle_se_CLK_GetPLLClockFreq + 28
        0x00000d48:    2000        .       MOVS     r0,#0
        0x00000d4a:    9006        ..      STR      r0,[sp,#0x18]
        0x00000d4c:    e035        5.      B        0xdba ; __acle_se_CLK_GetPLLClockFreq + 142
        0x00000d4e:    a805        ..      ADD      r0,sp,#0x14
        0x00000d50:    7880        .x      LDRB     r0,[r0,#2]
        0x00000d52:    0700        ..      LSLS     r0,r0,#28
        0x00000d54:    2800        .(      CMP      r0,#0
        0x00000d56:    d503        ..      BPL      0xd60 ; __acle_se_CLK_GetPLLClockFreq + 52
        0x00000d58:    e7ff        ..      B        0xd5a ; __acle_se_CLK_GetPLLClockFreq + 46
        0x00000d5a:    481e        .H      LDR      r0,[pc,#120] ; [0xdd4] = 0xb71b00
        0x00000d5c:    9004        ..      STR      r0,[sp,#0x10]
        0x00000d5e:    e002        ..      B        0xd66 ; __acle_se_CLK_GetPLLClockFreq + 58
        0x00000d60:    481c        .H      LDR      r0,[pc,#112] ; [0xdd4] = 0xb71b00
        0x00000d62:    9004        ..      STR      r0,[sp,#0x10]
        0x00000d64:    e7ff        ..      B        0xd66 ; __acle_se_CLK_GetPLLClockFreq + 58
        0x00000d66:    a805        ..      ADD      r0,sp,#0x14
        0x00000d68:    7880        .x      LDRB     r0,[r0,#2]
        0x00000d6a:    0780        ..      LSLS     r0,r0,#30
        0x00000d6c:    2800        .(      CMP      r0,#0
        0x00000d6e:    d503        ..      BPL      0xd78 ; __acle_se_CLK_GetPLLClockFreq + 76
        0x00000d70:    e7ff        ..      B        0xd72 ; __acle_se_CLK_GetPLLClockFreq + 70
        0x00000d72:    9804        ..      LDR      r0,[sp,#0x10]
        0x00000d74:    9006        ..      STR      r0,[sp,#0x18]
        0x00000d76:    e01f        ..      B        0xdb8 ; __acle_se_CLK_GetPLLClockFreq + 140
        0x00000d78:    a805        ..      ADD      r0,sp,#0x14
        0x00000d7a:    8800        ..      LDRH     r0,[r0,#0]
        0x00000d7c:    0b80        ..      LSRS     r0,r0,#14
        0x00000d7e:    4669        iF      MOV      r1,sp
        0x00000d80:    1808        ..      ADDS     r0,r1,r0
        0x00000d82:    7800        .x      LDRB     r0,[r0,#0]
        0x00000d84:    9001        ..      STR      r0,[sp,#4]
        0x00000d86:    9805        ..      LDR      r0,[sp,#0x14]
        0x00000d88:    4913        .I      LDR      r1,[pc,#76] ; [0xdd8] = 0x1ff
        0x00000d8a:    4008        .@      ANDS     r0,r0,r1
        0x00000d8c:    1c80        ..      ADDS     r0,r0,#2
        0x00000d8e:    9003        ..      STR      r0,[sp,#0xc]
        0x00000d90:    9805        ..      LDR      r0,[sp,#0x14]
        0x00000d92:    f6436100    C..a    MOVW     r1,#0x3e00
        0x00000d96:    4008        .@      ANDS     r0,r0,r1
        0x00000d98:    0a40        @.      LSRS     r0,r0,#9
        0x00000d9a:    1c40        @.      ADDS     r0,r0,#1
        0x00000d9c:    9002        ..      STR      r0,[sp,#8]
        0x00000d9e:    9804        ..      LDR      r0,[sp,#0x10]
        0x00000da0:    0880        ..      LSRS     r0,r0,#2
        0x00000da2:    9903        ..      LDR      r1,[sp,#0xc]
        0x00000da4:    4348        HC      MULS     r0,r1,r0
        0x00000da6:    0040        @.      LSLS     r0,r0,#1
        0x00000da8:    9902        ..      LDR      r1,[sp,#8]
        0x00000daa:    9a01        ..      LDR      r2,[sp,#4]
        0x00000dac:    434a        JC      MULS     r2,r1,r2
        0x00000dae:    fbb0f0f2    ....    UDIV     r0,r0,r2
        0x00000db2:    0080        ..      LSLS     r0,r0,#2
        0x00000db4:    9006        ..      STR      r0,[sp,#0x18]
        0x00000db6:    e7ff        ..      B        0xdb8 ; __acle_se_CLK_GetPLLClockFreq + 140
        0x00000db8:    e7ff        ..      B        0xdba ; __acle_se_CLK_GetPLLClockFreq + 142
        0x00000dba:    9806        ..      LDR      r0,[sp,#0x18]
        0x00000dbc:    b007        ..      ADD      sp,sp,#0x1c
        0x00000dbe:    4671        qF      MOV      r1,lr
        0x00000dc0:    4672        rF      MOV      r2,lr
        0x00000dc2:    4673        sF      MOV      r3,lr
        0x00000dc4:    46f4        .F      MOV      r12,lr
        0x00000dc6:    f38e8800    ....    MSR      APSR_nzcvq,lr ; formerly CPSR_f
        0x00000dca:    4774        tG      BXNS     lr
    $d.55
    __arm_cp.27_0
        0x00000dcc:    04020201    ....    DCD    67240449
    __arm_cp.27_1
        0x00000dd0:    40000240    @..@    DCD    1073742400
    __arm_cp.27_2
        0x00000dd4:    00b71b00    ....    DCD    12000000
    __arm_cp.27_3
        0x00000dd8:    000001ff    ....    DCD    511
    $t.24
    DEBUG_PORT_Init
        0x00000ddc:    4803        .H      LDR      r0,[pc,#12] ; [0xdec] = 0x50070024
        0x00000dde:    4904        .I      LDR      r1,[pc,#16] ; [0xdf0] = 0x30000066
        0x00000de0:    6001        .`      STR      r1,[r0,#0]
        0x00000de2:    4804        .H      LDR      r0,[pc,#16] ; [0xdf4] = 0x5007000c
        0x00000de4:    2103        .!      MOVS     r1,#3
        0x00000de6:    6001        .`      STR      r1,[r0,#0]
        0x00000de8:    4770        pG      BX       lr
        0x00000dea:    46c0        .F      MOV      r8,r8
    $d.25
    __arm_cp.12_0
        0x00000dec:    50070024    $..P    DCD    1342636068
    __arm_cp.12_1
        0x00000df0:    30000066    f..0    DCD    805306470
    __arm_cp.12_2
        0x00000df4:    5007000c    ...P    DCD    1342636044
    $t.0
    FMC_NSBA_Setup
        0x00000df8:    b580        ..      PUSH     {r7,lr}
        0x00000dfa:    4827        'H      LDR      r0,[pc,#156] ; [0xe98] = 0x4002f028
        0x00000dfc:    6800        .h      LDR      r0,[r0,#0]
        0x00000dfe:    2101        .!      MOVS     r1,#1
        0x00000e00:    0489        ..      LSLS     r1,r1,#18
        0x00000e02:    4288        .B      CMP      r0,r1
        0x00000e04:    d047        G.      BEQ      0xe96 ; FMC_NSBA_Setup + 158
        0x00000e06:    e7ff        ..      B        0xe08 ; FMC_NSBA_Setup + 16
        0x00000e08:    f000fd48    ..H.    BL       SYS_UnlockReg ; 0x189c
        0x00000e0c:    4823        #H      LDR      r0,[pc,#140] ; [0xe9c] = 0x4000c000
        0x00000e0e:    2111        .!      MOVS     r1,#0x11
        0x00000e10:    6001        .`      STR      r1,[r0,#0]
        0x00000e12:    4823        #H      LDR      r0,[pc,#140] ; [0xea0] = 0x4000c004
        0x00000e14:    4923        #I      LDR      r1,[pc,#140] ; [0xea4] = 0x200800
        0x00000e16:    6001        .`      STR      r1,[r0,#0]
        0x00000e18:    4823        #H      LDR      r0,[pc,#140] ; [0xea8] = 0x4000c00c
        0x00000e1a:    2100        .!      MOVS     r1,#0
        0x00000e1c:    6001        .`      STR      r1,[r0,#0]
        0x00000e1e:    4823        #H      LDR      r0,[pc,#140] ; [0xeac] = 0x4000c010
        0x00000e20:    2101        .!      MOVS     r1,#1
        0x00000e22:    6001        .`      STR      r1,[r0,#0]
        0x00000e24:    e7ff        ..      B        0xe26 ; FMC_NSBA_Setup + 46
        0x00000e26:    4821        !H      LDR      r0,[pc,#132] ; [0xeac] = 0x4000c010
        0x00000e28:    6800        .h      LDR      r0,[r0,#0]
        0x00000e2a:    2800        .(      CMP      r0,#0
        0x00000e2c:    d001        ..      BEQ      0xe32 ; FMC_NSBA_Setup + 58
        0x00000e2e:    e7ff        ..      B        0xe30 ; FMC_NSBA_Setup + 56
        0x00000e30:    e7f9        ..      B        0xe26 ; FMC_NSBA_Setup + 46
        0x00000e32:    481f        .H      LDR      r0,[pc,#124] ; [0xeb0] = 0x4000c008
        0x00000e34:    6800        .h      LDR      r0,[r0,#0]
        0x00000e36:    1c40        @.      ADDS     r0,r0,#1
        0x00000e38:    2800        .(      CMP      r0,#0
        0x00000e3a:    d12b        +.      BNE      0xe94 ; FMC_NSBA_Setup + 156
        0x00000e3c:    e7ff        ..      B        0xe3e ; FMC_NSBA_Setup + 70
        0x00000e3e:    2001        .       MOVS     r0,#1
        0x00000e40:    0481        ..      LSLS     r1,r0,#18
        0x00000e42:    4a1b        .J      LDR      r2,[pc,#108] ; [0xeb0] = 0x4000c008
        0x00000e44:    6011        .`      STR      r1,[r2,#0]
        0x00000e46:    4918        .I      LDR      r1,[pc,#96] ; [0xea8] = 0x4000c00c
        0x00000e48:    2221        !"      MOVS     r2,#0x21
        0x00000e4a:    600a        .`      STR      r2,[r1,#0]
        0x00000e4c:    4917        .I      LDR      r1,[pc,#92] ; [0xeac] = 0x4000c010
        0x00000e4e:    6008        .`      STR      r0,[r1,#0]
        0x00000e50:    e7ff        ..      B        0xe52 ; FMC_NSBA_Setup + 90
        0x00000e52:    4816        .H      LDR      r0,[pc,#88] ; [0xeac] = 0x4000c010
        0x00000e54:    6800        .h      LDR      r0,[r0,#0]
        0x00000e56:    2800        .(      CMP      r0,#0
        0x00000e58:    d001        ..      BEQ      0xe5e ; FMC_NSBA_Setup + 102
        0x00000e5a:    e7ff        ..      B        0xe5c ; FMC_NSBA_Setup + 100
        0x00000e5c:    e7f9        ..      B        0xe52 ; FMC_NSBA_Setup + 90
        0x00000e5e:    4814        .H      LDR      r0,[pc,#80] ; [0xeb0] = 0x4000c008
        0x00000e60:    2100        .!      MOVS     r1,#0
        0x00000e62:    6001        .`      STR      r1,[r0,#0]
        0x00000e64:    4810        .H      LDR      r0,[pc,#64] ; [0xea8] = 0x4000c00c
        0x00000e66:    6001        .`      STR      r1,[r0,#0]
        0x00000e68:    4810        .H      LDR      r0,[pc,#64] ; [0xeac] = 0x4000c010
        0x00000e6a:    2101        .!      MOVS     r1,#1
        0x00000e6c:    6001        .`      STR      r1,[r0,#0]
        0x00000e6e:    e7ff        ..      B        0xe70 ; FMC_NSBA_Setup + 120
        0x00000e70:    480e        .H      LDR      r0,[pc,#56] ; [0xeac] = 0x4000c010
        0x00000e72:    6800        .h      LDR      r0,[r0,#0]
        0x00000e74:    2800        .(      CMP      r0,#0
        0x00000e76:    d001        ..      BEQ      0xe7c ; FMC_NSBA_Setup + 132
        0x00000e78:    e7ff        ..      B        0xe7a ; FMC_NSBA_Setup + 130
        0x00000e7a:    e7f9        ..      B        0xe70 ; FMC_NSBA_Setup + 120
        0x00000e7c:    480c        .H      LDR      r0,[pc,#48] ; [0xeb0] = 0x4000c008
        0x00000e7e:    6800        .h      LDR      r0,[r0,#0]
        0x00000e80:    2101        .!      MOVS     r1,#1
        0x00000e82:    0489        ..      LSLS     r1,r1,#18
        0x00000e84:    4288        .B      CMP      r0,r1
        0x00000e86:    d104        ..      BNE      0xe92 ; FMC_NSBA_Setup + 154
        0x00000e88:    e7ff        ..      B        0xe8a ; FMC_NSBA_Setup + 146
        0x00000e8a:    480a        .H      LDR      r0,[pc,#40] ; [0xeb4] = 0x40000008
        0x00000e8c:    2101        .!      MOVS     r1,#1
        0x00000e8e:    6001        .`      STR      r1,[r0,#0]
        0x00000e90:    e7ff        ..      B        0xe92 ; FMC_NSBA_Setup + 154
        0x00000e92:    e7ff        ..      B        0xe94 ; FMC_NSBA_Setup + 156
        0x00000e94:    e7ff        ..      B        0xe96 ; FMC_NSBA_Setup + 158
        0x00000e96:    bd80        ..      POP      {r7,pc}
    $d.1
    __arm_cp.0_0
        0x00000e98:    4002f028    (..@    DCD    1073934376
    __arm_cp.0_1
        0x00000e9c:    4000c000    ...@    DCD    1073790976
    __arm_cp.0_2
        0x00000ea0:    4000c004    ...@    DCD    1073790980
    __arm_cp.0_3
        0x00000ea4:    00200800    .. .    DCD    2099200
    __arm_cp.0_4
        0x00000ea8:    4000c00c    ...@    DCD    1073790988
    __arm_cp.0_5
        0x00000eac:    4000c010    ...@    DCD    1073790992
    __arm_cp.0_6
        0x00000eb0:    4000c008    ...@    DCD    1073790984
    __arm_cp.0_7
        0x00000eb4:    40000008    ...@    DCD    1073741832
    $t.0
    GPIO_SetMode
        0x00000eb8:    b084        ..      SUB      sp,sp,#0x10
        0x00000eba:    9003        ..      STR      r0,[sp,#0xc]
        0x00000ebc:    9102        ..      STR      r1,[sp,#8]
        0x00000ebe:    9201        ..      STR      r2,[sp,#4]
        0x00000ec0:    2000        .       MOVS     r0,#0
        0x00000ec2:    9000        ..      STR      r0,[sp,#0]
        0x00000ec4:    e7ff        ..      B        0xec6 ; GPIO_SetMode + 14
        0x00000ec6:    9800        ..      LDR      r0,[sp,#0]
        0x00000ec8:    280f        .(      CMP      r0,#0xf
        0x00000eca:    d819        ..      BHI      0xf00 ; GPIO_SetMode + 72
        0x00000ecc:    e7ff        ..      B        0xece ; GPIO_SetMode + 22
        0x00000ece:    9802        ..      LDR      r0,[sp,#8]
        0x00000ed0:    9900        ..      LDR      r1,[sp,#0]
        0x00000ed2:    40c8        .@      LSRS     r0,r0,r1
        0x00000ed4:    07c0        ..      LSLS     r0,r0,#31
        0x00000ed6:    2800        .(      CMP      r0,#0
        0x00000ed8:    d00d        ..      BEQ      0xef6 ; GPIO_SetMode + 62
        0x00000eda:    e7ff        ..      B        0xedc ; GPIO_SetMode + 36
        0x00000edc:    9803        ..      LDR      r0,[sp,#0xc]
        0x00000ede:    6800        .h      LDR      r0,[r0,#0]
        0x00000ee0:    9900        ..      LDR      r1,[sp,#0]
        0x00000ee2:    0049        I.      LSLS     r1,r1,#1
        0x00000ee4:    2203        ."      MOVS     r2,#3
        0x00000ee6:    408a        .@      LSLS     r2,r2,r1
        0x00000ee8:    4390        .C      BICS     r0,r0,r2
        0x00000eea:    9a01        ..      LDR      r2,[sp,#4]
        0x00000eec:    408a        .@      LSLS     r2,r2,r1
        0x00000eee:    4310        .C      ORRS     r0,r0,r2
        0x00000ef0:    9903        ..      LDR      r1,[sp,#0xc]
        0x00000ef2:    6008        .`      STR      r0,[r1,#0]
        0x00000ef4:    e7ff        ..      B        0xef6 ; GPIO_SetMode + 62
        0x00000ef6:    e7ff        ..      B        0xef8 ; GPIO_SetMode + 64
        0x00000ef8:    9800        ..      LDR      r0,[sp,#0]
        0x00000efa:    1c40        @.      ADDS     r0,r0,#1
        0x00000efc:    9000        ..      STR      r0,[sp,#0]
        0x00000efe:    e7e2        ..      B        0xec6 ; GPIO_SetMode + 14
        0x00000f00:    b004        ..      ADD      sp,sp,#0x10
        0x00000f02:    4770        pG      BX       lr
    LED_Off
        0x00000f04:    b580        ..      PUSH     {r7,lr}
        0x00000f06:    b082        ..      SUB      sp,sp,#8
        0x00000f08:    4805        .H      LDR      r0,[pc,#20] ; [0xf20] = 0x28ec
        0x00000f0a:    f000ff5d    ..].    BL       __0printf ; 0x1dc8
        0x00000f0e:    490e        .I      LDR      r1,[pc,#56] ; [0xf48] = 0x4000482c
        0x00000f10:    2201        ."      MOVS     r2,#1
        0x00000f12:    600a        .`      STR      r2,[r1,#0]
        0x00000f14:    490d        .I      LDR      r1,[pc,#52] ; [0xf4c] = 0x40004844
        0x00000f16:    600a        .`      STR      r2,[r1,#0]
        0x00000f18:    9001        ..      STR      r0,[sp,#4]
        0x00000f1a:    4610        .F      MOV      r0,r2
        0x00000f1c:    b002        ..      ADD      sp,sp,#8
        0x00000f1e:    bd80        ..      POP      {r7,pc}
    $d.13
    __arm_cp.6_0
        0x00000f20:    000028ec    .(..    DCD    10476
    $t.10
    LED_On
        0x00000f24:    b580        ..      PUSH     {r7,lr}
        0x00000f26:    b082        ..      SUB      sp,sp,#8
        0x00000f28:    4806        .H      LDR      r0,[pc,#24] ; [0xf44] = 0x28fc
        0x00000f2a:    f000ff4d    ..M.    BL       __0printf ; 0x1dc8
        0x00000f2e:    4906        .I      LDR      r1,[pc,#24] ; [0xf48] = 0x4000482c
        0x00000f30:    2200        ."      MOVS     r2,#0
        0x00000f32:    600a        .`      STR      r2,[r1,#0]
        0x00000f34:    4905        .I      LDR      r1,[pc,#20] ; [0xf4c] = 0x40004844
        0x00000f36:    600a        .`      STR      r2,[r1,#0]
        0x00000f38:    2101        .!      MOVS     r1,#1
        0x00000f3a:    9001        ..      STR      r0,[sp,#4]
        0x00000f3c:    4608        .F      MOV      r0,r1
        0x00000f3e:    b002        ..      ADD      sp,sp,#8
        0x00000f40:    bd80        ..      POP      {r7,pc}
        0x00000f42:    46c0        .F      MOV      r8,r8
    $d.11
    __arm_cp.5_0
        0x00000f44:    000028fc    .(..    DCD    10492
    __arm_cp.5_1
        0x00000f48:    4000482c    ,H.@    DCD    1073760300
    __arm_cp.5_2
        0x00000f4c:    40004844    DH.@    DCD    1073760324
    $t.10
    NSC_Init
        0x00000f50:    b083        ..      SUB      sp,sp,#0xc
        0x00000f52:    480c        .H      LDR      r0,[pc,#48] ; [0xf84] = 0x2ca0
        0x00000f54:    9001        ..      STR      r0,[sp,#4]
        0x00000f56:    480c        .H      LDR      r0,[pc,#48] ; [0xf88] = 0x2d20
        0x00000f58:    9000        ..      STR      r0,[sp,#0]
        0x00000f5a:    2003        .       MOVS     r0,#3
        0x00000f5c:    9002        ..      STR      r0,[sp,#8]
        0x00000f5e:    a902        ..      ADD      r1,sp,#8
        0x00000f60:    7809        .x      LDRB     r1,[r1,#0]
        0x00000f62:    4a0a        .J      LDR      r2,[pc,#40] ; [0xf8c] = 0xe000edd8
        0x00000f64:    6011        .`      STR      r1,[r2,#0]
        0x00000f66:    9901        ..      LDR      r1,[sp,#4]
        0x00000f68:    221f        ."      MOVS     r2,#0x1f
        0x00000f6a:    4391        .C      BICS     r1,r1,r2
        0x00000f6c:    4a08        .J      LDR      r2,[pc,#32] ; [0xf90] = 0xe000eddc
        0x00000f6e:    6011        .`      STR      r1,[r2,#0]
        0x00000f70:    9900        ..      LDR      r1,[sp,#0]
        0x00000f72:    1e49        I.      SUBS     r1,r1,#1
        0x00000f74:    4301        .C      ORRS     r1,r1,r0
        0x00000f76:    201c        .       MOVS     r0,#0x1c
        0x00000f78:    4381        .C      BICS     r1,r1,r0
        0x00000f7a:    4806        .H      LDR      r0,[pc,#24] ; [0xf94] = 0xe000ede0
        0x00000f7c:    6001        .`      STR      r1,[r0,#0]
        0x00000f7e:    b003        ..      ADD      sp,sp,#0xc
        0x00000f80:    4770        pG      BX       lr
        0x00000f82:    46c0        .F      MOV      r8,r8
    $d.11
    __arm_cp.5_0
        0x00000f84:    00002ca0    .,..    DCD    11424
    __arm_cp.5_1
        0x00000f88:    00002d20     -..    DCD    11552
    __arm_cp.5_2
        0x00000f8c:    e000edd8    ....    DCD    3758157272
    __arm_cp.5_3
        0x00000f90:    e000eddc    ....    DCD    3758157276
    __arm_cp.5_4
        0x00000f94:    e000ede0    ....    DCD    3758157280
    $t.0
    ProcessHardFault
        0x00000f98:    b510        ..      PUSH     {r4,lr}
        0x00000f9a:    b0cc        ..      SUB      sp,sp,#0x130
        0x00000f9c:    9049        I.      STR      r0,[sp,#0x124]
        0x00000f9e:    9148        H.      STR      r1,[sp,#0x120]
        0x00000fa0:    9247        G.      STR      r2,[sp,#0x11c]
        0x00000fa2:    2000        .       MOVS     r0,#0
        0x00000fa4:    9046        F.      STR      r0,[sp,#0x118]
        0x00000fa6:    9042        B.      STR      r0,[sp,#0x108]
        0x00000fa8:    9849        I.      LDR      r0,[sp,#0x124]
        0x00000faa:    2140        @!      MOVS     r1,#0x40
        0x00000fac:    4008        .@      ANDS     r0,r0,r1
        0x00000fae:    0980        ..      LSRS     r0,r0,#6
        0x00000fb0:    9040        @.      STR      r0,[sp,#0x100]
        0x00000fb2:    9840        @.      LDR      r0,[sp,#0x100]
        0x00000fb4:    2800        .(      CMP      r0,#0
        0x00000fb6:    d00d        ..      BEQ      0xfd4 ; ProcessHardFault + 60
        0x00000fb8:    e7ff        ..      B        0xfba ; ProcessHardFault + 34
        0x00000fba:    a849        I.      ADD      r0,sp,#0x124
        0x00000fbc:    7800        .x      LDRB     r0,[r0,#0]
        0x00000fbe:    0740        @.      LSLS     r0,r0,#29
        0x00000fc0:    2800        .(      CMP      r0,#0
        0x00000fc2:    d503        ..      BPL      0xfcc ; ProcessHardFault + 52
        0x00000fc4:    e7ff        ..      B        0xfc6 ; ProcessHardFault + 46
        0x00000fc6:    9847        G.      LDR      r0,[sp,#0x11c]
        0x00000fc8:    9046        F.      STR      r0,[sp,#0x118]
        0x00000fca:    e002        ..      B        0xfd2 ; ProcessHardFault + 58
        0x00000fcc:    9848        H.      LDR      r0,[sp,#0x120]
        0x00000fce:    9046        F.      STR      r0,[sp,#0x118]
        0x00000fd0:    e7ff        ..      B        0xfd2 ; ProcessHardFault + 58
        0x00000fd2:    e012        ..      B        0xffa ; ProcessHardFault + 98
        0x00000fd4:    a849        I.      ADD      r0,sp,#0x124
        0x00000fd6:    7800        .x      LDRB     r0,[r0,#0]
        0x00000fd8:    0740        @.      LSLS     r0,r0,#29
        0x00000fda:    2800        .(      CMP      r0,#0
        0x00000fdc:    d506        ..      BPL      0xfec ; ProcessHardFault + 84
        0x00000fde:    e7ff        ..      B        0xfe0 ; ProcessHardFault + 72
        0x00000fe0:    f3ef8089    ....    MRS      r0,PSP_NS
        0x00000fe4:    904a        J.      STR      r0,[sp,#0x128]
        0x00000fe6:    984a        J.      LDR      r0,[sp,#0x128]
        0x00000fe8:    9046        F.      STR      r0,[sp,#0x118]
        0x00000fea:    e005        ..      B        0xff8 ; ProcessHardFault + 96
        0x00000fec:    f3ef8088    ....    MRS      r0,MSP_NS
        0x00000ff0:    904b        K.      STR      r0,[sp,#0x12c]
        0x00000ff2:    984b        K.      LDR      r0,[sp,#0x12c]
        0x00000ff4:    9046        F.      STR      r0,[sp,#0x118]
        0x00000ff6:    e7ff        ..      B        0xff8 ; ProcessHardFault + 96
        0x00000ff8:    e7ff        ..      B        0xffa ; ProcessHardFault + 98
        0x00000ffa:    48fa        .H      LDR      r0,[pc,#1000] ; [0x13e4] = 0x292e
        0x00000ffc:    f000fee4    ....    BL       __0printf ; 0x1dc8
        0x00001000:    49f9        .I      LDR      r1,[pc,#996] ; [0x13e8] = 0x2a1c
        0x00001002:    9036        6.      STR      r0,[sp,#0xd8]
        0x00001004:    4608        .F      MOV      r0,r1
        0x00001006:    f000fedf    ....    BL       __0printf ; 0x1dc8
        0x0000100a:    9946        F.      LDR      r1,[sp,#0x118]
        0x0000100c:    6989        .i      LDR      r1,[r1,#0x18]
        0x0000100e:    9143        C.      STR      r1,[sp,#0x10c]
        0x00001010:    9943        C.      LDR      r1,[sp,#0x10c]
        0x00001012:    8809        ..      LDRH     r1,[r1,#0]
        0x00001014:    9144        D.      STR      r1,[sp,#0x110]
        0x00001016:    2100        .!      MOVS     r1,#0
        0x00001018:    913a        :.      STR      r1,[sp,#0xe8]
        0x0000101a:    9940        @.      LDR      r1,[sp,#0x100]
        0x0000101c:    2900        .)      CMP      r1,#0
        0x0000101e:    d112        ..      BNE      0x1046 ; ProcessHardFault + 174
        0x00001020:    e7ff        ..      B        0x1022 ; ProcessHardFault + 138
        0x00001022:    a843        C.      ADD      r0,sp,#0x10c
        0x00001024:    78c0        .x      LDRB     r0,[r0,#3]
        0x00001026:    06c0        ..      LSLS     r0,r0,#27
        0x00001028:    2800        .(      CMP      r0,#0
        0x0000102a:    d40c        ..      BMI      0x1046 ; ProcessHardFault + 174
        0x0000102c:    e7ff        ..      B        0x102e ; ProcessHardFault + 150
        0x0000102e:    9943        C.      LDR      r1,[sp,#0x10c]
        0x00001030:    48ee        .H      LDR      r0,[pc,#952] ; [0x13ec] = 0x2af2
        0x00001032:    f000fec9    ....    BL       __0printf ; 0x1dc8
        0x00001036:    49ee        .I      LDR      r1,[pc,#952] ; [0x13f0] = 0x29f0
        0x00001038:    9035        5.      STR      r0,[sp,#0xd4]
        0x0000103a:    4608        .F      MOV      r0,r1
        0x0000103c:    f000fec4    ....    BL       __0printf ; 0x1dc8
        0x00001040:    2101        .!      MOVS     r1,#1
        0x00001042:    913a        :.      STR      r1,[sp,#0xe8]
        0x00001044:    e15c        \.      B        0x1300 ; ProcessHardFault + 872
        0x00001046:    9844        D.      LDR      r0,[sp,#0x110]
        0x00001048:    49ea        .I      LDR      r1,[pc,#936] ; [0x13f4] = 0xbeab
        0x0000104a:    4288        .B      CMP      r0,r1
        0x0000104c:    d106        ..      BNE      0x105c ; ProcessHardFault + 196
        0x0000104e:    e7ff        ..      B        0x1050 ; ProcessHardFault + 184
        0x00001050:    48e9        .H      LDR      r0,[pc,#932] ; [0x13f8] = 0x2a89
        0x00001052:    f000feb9    ....    BL       __0printf ; 0x1dc8
        0x00001056:    2102        .!      MOVS     r1,#2
        0x00001058:    913a        :.      STR      r1,[sp,#0xe8]
        0x0000105a:    e150        P.      B        0x12fe ; ProcessHardFault + 870
        0x0000105c:    9844        D.      LDR      r0,[sp,#0x110]
        0x0000105e:    0b00        ..      LSRS     r0,r0,#12
        0x00001060:    2805        .(      CMP      r0,#5
        0x00001062:    d158        X.      BNE      0x1116 ; ProcessHardFault + 382
        0x00001064:    e7ff        ..      B        0x1066 ; ProcessHardFault + 206
        0x00001066:    2003        .       MOVS     r0,#3
        0x00001068:    903a        :.      STR      r0,[sp,#0xe8]
        0x0000106a:    9844        D.      LDR      r0,[sp,#0x110]
        0x0000106c:    05c0        ..      LSLS     r0,r0,#23
        0x0000106e:    0f40        @.      LSRS     r0,r0,#29
        0x00001070:    903f        ?.      STR      r0,[sp,#0xfc]
        0x00001072:    9844        D.      LDR      r0,[sp,#0x110]
        0x00001074:    0680        ..      LSLS     r0,r0,#26
        0x00001076:    0f40        @.      LSRS     r0,r0,#29
        0x00001078:    903e        >.      STR      r0,[sp,#0xf8]
        0x0000107a:    9844        D.      LDR      r0,[sp,#0x110]
        0x0000107c:    2107        .!      MOVS     r1,#7
        0x0000107e:    4008        .@      ANDS     r0,r0,r1
        0x00001080:    903d        =.      STR      r0,[sp,#0xf4]
        0x00001082:    9846        F.      LDR      r0,[sp,#0x118]
        0x00001084:    993e        >.      LDR      r1,[sp,#0xf8]
        0x00001086:    0089        ..      LSLS     r1,r1,#2
        0x00001088:    5841        AX      LDR      r1,[r0,r1]
        0x0000108a:    9a3f        ?.      LDR      r2,[sp,#0xfc]
        0x0000108c:    0092        ..      LSLS     r2,r2,#2
        0x0000108e:    5880        .X      LDR      r0,[r0,r2]
        0x00001090:    1808        ..      ADDS     r0,r1,r0
        0x00001092:    9042        B.      STR      r0,[sp,#0x108]
        0x00001094:    9846        F.      LDR      r0,[sp,#0x118]
        0x00001096:    993d        =.      LDR      r1,[sp,#0xf4]
        0x00001098:    0089        ..      LSLS     r1,r1,#2
        0x0000109a:    5840        @X      LDR      r0,[r0,r1]
        0x0000109c:    9041        A.      STR      r0,[sp,#0x104]
        0x0000109e:    983e        >.      LDR      r0,[sp,#0xf8]
        0x000010a0:    993d        =.      LDR      r1,[sp,#0xf4]
        0x000010a2:    4288        .B      CMP      r0,r1
        0x000010a4:    d11b        ..      BNE      0x10de ; ProcessHardFault + 326
        0x000010a6:    e7ff        ..      B        0x10a8 ; ProcessHardFault + 272
        0x000010a8:    9943        C.      LDR      r1,[sp,#0x10c]
        0x000010aa:    9844        D.      LDR      r0,[sp,#0x110]
        0x000010ac:    0502        ..      LSLS     r2,r0,#20
        0x000010ae:    4bd3        .K      LDR      r3,[pc,#844] ; [0x13fc] = 0x2c48
        0x000010b0:    4cd3        .L      LDR      r4,[pc,#844] ; [0x1400] = 0x2c4c
        0x000010b2:    2a00        .*      CMP      r2,#0
        0x000010b4:    9134        4.      STR      r1,[sp,#0xd0]
        0x000010b6:    9033        3.      STR      r0,[sp,#0xcc]
        0x000010b8:    9432        2.      STR      r4,[sp,#0xc8]
        0x000010ba:    9331        1.      STR      r3,[sp,#0xc4]
        0x000010bc:    d401        ..      BMI      0x10c2 ; ProcessHardFault + 298
        0x000010be:    9832        2.      LDR      r0,[sp,#0xc8]
        0x000010c0:    9031        1.      STR      r0,[sp,#0xc4]
        0x000010c2:    9831        1.      LDR      r0,[sp,#0xc4]
        0x000010c4:    993d        =.      LDR      r1,[sp,#0xf4]
        0x000010c6:    9a42        B.      LDR      r2,[sp,#0x108]
        0x000010c8:    9201        ..      STR      r2,[sp,#4]
        0x000010ca:    9100        ..      STR      r1,[sp,#0]
        0x000010cc:    49cd        .I      LDR      r1,[pc,#820] ; [0x1404] = 0x2a46
        0x000010ce:    9030        0.      STR      r0,[sp,#0xc0]
        0x000010d0:    4608        .F      MOV      r0,r1
        0x000010d2:    9934        4.      LDR      r1,[sp,#0xd0]
        0x000010d4:    9a33        3.      LDR      r2,[sp,#0xcc]
        0x000010d6:    9b30        0.      LDR      r3,[sp,#0xc0]
        0x000010d8:    f000fe76    ..v.    BL       __0printf ; 0x1dc8
        0x000010dc:    e01a        ..      B        0x1114 ; ProcessHardFault + 380
        0x000010de:    9943        C.      LDR      r1,[sp,#0x10c]
        0x000010e0:    9844        D.      LDR      r0,[sp,#0x110]
        0x000010e2:    0502        ..      LSLS     r2,r0,#20
        0x000010e4:    4bc5        .K      LDR      r3,[pc,#788] ; [0x13fc] = 0x2c48
        0x000010e6:    4cc6        .L      LDR      r4,[pc,#792] ; [0x1400] = 0x2c4c
        0x000010e8:    2a00        .*      CMP      r2,#0
        0x000010ea:    912f        /.      STR      r1,[sp,#0xbc]
        0x000010ec:    902e        ..      STR      r0,[sp,#0xb8]
        0x000010ee:    942d        -.      STR      r4,[sp,#0xb4]
        0x000010f0:    932c        ,.      STR      r3,[sp,#0xb0]
        0x000010f2:    d401        ..      BMI      0x10f8 ; ProcessHardFault + 352
        0x000010f4:    982d        -.      LDR      r0,[sp,#0xb4]
        0x000010f6:    902c        ,.      STR      r0,[sp,#0xb0]
        0x000010f8:    982c        ,.      LDR      r0,[sp,#0xb0]
        0x000010fa:    9941        A.      LDR      r1,[sp,#0x104]
        0x000010fc:    9a42        B.      LDR      r2,[sp,#0x108]
        0x000010fe:    9201        ..      STR      r2,[sp,#4]
        0x00001100:    9100        ..      STR      r1,[sp,#0]
        0x00001102:    49c1        .I      LDR      r1,[pc,#772] ; [0x1408] = 0x2a67
        0x00001104:    902b        +.      STR      r0,[sp,#0xac]
        0x00001106:    4608        .F      MOV      r0,r1
        0x00001108:    992f        /.      LDR      r1,[sp,#0xbc]
        0x0000110a:    9a2e        ..      LDR      r2,[sp,#0xb8]
        0x0000110c:    9b2b        +.      LDR      r3,[sp,#0xac]
        0x0000110e:    f000fe5b    ..[.    BL       __0printf ; 0x1dc8
        0x00001112:    e7ff        ..      B        0x1114 ; ProcessHardFault + 380
        0x00001114:    e0f2        ..      B        0x12fc ; ProcessHardFault + 868
        0x00001116:    9844        D.      LDR      r0,[sp,#0x110]
        0x00001118:    0b40        @.      LSRS     r0,r0,#13
        0x0000111a:    2803        .(      CMP      r0,#3
        0x0000111c:    d156        V.      BNE      0x11cc ; ProcessHardFault + 564
        0x0000111e:    e7ff        ..      B        0x1120 ; ProcessHardFault + 392
        0x00001120:    2003        .       MOVS     r0,#3
        0x00001122:    903a        :.      STR      r0,[sp,#0xe8]
        0x00001124:    9844        D.      LDR      r0,[sp,#0x110]
        0x00001126:    0540        @.      LSLS     r0,r0,#21
        0x00001128:    0ec0        ..      LSRS     r0,r0,#27
        0x0000112a:    903c        <.      STR      r0,[sp,#0xf0]
        0x0000112c:    9844        D.      LDR      r0,[sp,#0x110]
        0x0000112e:    0680        ..      LSLS     r0,r0,#26
        0x00001130:    0f40        @.      LSRS     r0,r0,#29
        0x00001132:    903e        >.      STR      r0,[sp,#0xf8]
        0x00001134:    9844        D.      LDR      r0,[sp,#0x110]
        0x00001136:    2107        .!      MOVS     r1,#7
        0x00001138:    4008        .@      ANDS     r0,r0,r1
        0x0000113a:    903d        =.      STR      r0,[sp,#0xf4]
        0x0000113c:    9846        F.      LDR      r0,[sp,#0x118]
        0x0000113e:    993e        >.      LDR      r1,[sp,#0xf8]
        0x00001140:    0089        ..      LSLS     r1,r1,#2
        0x00001142:    5840        @X      LDR      r0,[r0,r1]
        0x00001144:    993c        <.      LDR      r1,[sp,#0xf0]
        0x00001146:    1840        @.      ADDS     r0,r0,r1
        0x00001148:    9042        B.      STR      r0,[sp,#0x108]
        0x0000114a:    9846        F.      LDR      r0,[sp,#0x118]
        0x0000114c:    993d        =.      LDR      r1,[sp,#0xf4]
        0x0000114e:    0089        ..      LSLS     r1,r1,#2
        0x00001150:    5840        @X      LDR      r0,[r0,r1]
        0x00001152:    9041        A.      STR      r0,[sp,#0x104]
        0x00001154:    983d        =.      LDR      r0,[sp,#0xf4]
        0x00001156:    993e        >.      LDR      r1,[sp,#0xf8]
        0x00001158:    4288        .B      CMP      r0,r1
        0x0000115a:    d11b        ..      BNE      0x1194 ; ProcessHardFault + 508
        0x0000115c:    e7ff        ..      B        0x115e ; ProcessHardFault + 454
        0x0000115e:    9943        C.      LDR      r1,[sp,#0x10c]
        0x00001160:    9844        D.      LDR      r0,[sp,#0x110]
        0x00001162:    0502        ..      LSLS     r2,r0,#20
        0x00001164:    4ba5        .K      LDR      r3,[pc,#660] ; [0x13fc] = 0x2c48
        0x00001166:    4ca6        .L      LDR      r4,[pc,#664] ; [0x1400] = 0x2c4c
        0x00001168:    2a00        .*      CMP      r2,#0
        0x0000116a:    912a        *.      STR      r1,[sp,#0xa8]
        0x0000116c:    9029        ).      STR      r0,[sp,#0xa4]
        0x0000116e:    9428        (.      STR      r4,[sp,#0xa0]
        0x00001170:    9327        '.      STR      r3,[sp,#0x9c]
        0x00001172:    d401        ..      BMI      0x1178 ; ProcessHardFault + 480
        0x00001174:    9828        (.      LDR      r0,[sp,#0xa0]
        0x00001176:    9027        '.      STR      r0,[sp,#0x9c]
        0x00001178:    9827        '.      LDR      r0,[sp,#0x9c]
        0x0000117a:    993d        =.      LDR      r1,[sp,#0xf4]
        0x0000117c:    9a42        B.      LDR      r2,[sp,#0x108]
        0x0000117e:    9201        ..      STR      r2,[sp,#4]
        0x00001180:    9100        ..      STR      r1,[sp,#0]
        0x00001182:    49a0        .I      LDR      r1,[pc,#640] ; [0x1404] = 0x2a46
        0x00001184:    9026        &.      STR      r0,[sp,#0x98]
        0x00001186:    4608        .F      MOV      r0,r1
        0x00001188:    992a        *.      LDR      r1,[sp,#0xa8]
        0x0000118a:    9a29        ).      LDR      r2,[sp,#0xa4]
        0x0000118c:    9b26        &.      LDR      r3,[sp,#0x98]
        0x0000118e:    f000fe1b    ....    BL       __0printf ; 0x1dc8
        0x00001192:    e01a        ..      B        0x11ca ; ProcessHardFault + 562
        0x00001194:    9943        C.      LDR      r1,[sp,#0x10c]
        0x00001196:    9844        D.      LDR      r0,[sp,#0x110]
        0x00001198:    0502        ..      LSLS     r2,r0,#20
        0x0000119a:    4b98        .K      LDR      r3,[pc,#608] ; [0x13fc] = 0x2c48
        0x0000119c:    4c98        .L      LDR      r4,[pc,#608] ; [0x1400] = 0x2c4c
        0x0000119e:    2a00        .*      CMP      r2,#0
        0x000011a0:    9125        %.      STR      r1,[sp,#0x94]
        0x000011a2:    9024        $.      STR      r0,[sp,#0x90]
        0x000011a4:    9423        #.      STR      r4,[sp,#0x8c]
        0x000011a6:    9322        ".      STR      r3,[sp,#0x88]
        0x000011a8:    d401        ..      BMI      0x11ae ; ProcessHardFault + 534
        0x000011aa:    9823        #.      LDR      r0,[sp,#0x8c]
        0x000011ac:    9022        ".      STR      r0,[sp,#0x88]
        0x000011ae:    9822        ".      LDR      r0,[sp,#0x88]
        0x000011b0:    9941        A.      LDR      r1,[sp,#0x104]
        0x000011b2:    9a42        B.      LDR      r2,[sp,#0x108]
        0x000011b4:    9201        ..      STR      r2,[sp,#4]
        0x000011b6:    9100        ..      STR      r1,[sp,#0]
        0x000011b8:    4993        .I      LDR      r1,[pc,#588] ; [0x1408] = 0x2a67
        0x000011ba:    9021        !.      STR      r0,[sp,#0x84]
        0x000011bc:    4608        .F      MOV      r0,r1
        0x000011be:    9925        %.      LDR      r1,[sp,#0x94]
        0x000011c0:    9a24        $.      LDR      r2,[sp,#0x90]
        0x000011c2:    9b21        !.      LDR      r3,[sp,#0x84]
        0x000011c4:    f000fe00    ....    BL       __0printf ; 0x1dc8
        0x000011c8:    e7ff        ..      B        0x11ca ; ProcessHardFault + 562
        0x000011ca:    e096        ..      B        0x12fa ; ProcessHardFault + 866
        0x000011cc:    9844        D.      LDR      r0,[sp,#0x110]
        0x000011ce:    0b00        ..      LSRS     r0,r0,#12
        0x000011d0:    2808        .(      CMP      r0,#8
        0x000011d2:    d156        V.      BNE      0x1282 ; ProcessHardFault + 746
        0x000011d4:    e7ff        ..      B        0x11d6 ; ProcessHardFault + 574
        0x000011d6:    2003        .       MOVS     r0,#3
        0x000011d8:    903a        :.      STR      r0,[sp,#0xe8]
        0x000011da:    9844        D.      LDR      r0,[sp,#0x110]
        0x000011dc:    0540        @.      LSLS     r0,r0,#21
        0x000011de:    0ec0        ..      LSRS     r0,r0,#27
        0x000011e0:    903c        <.      STR      r0,[sp,#0xf0]
        0x000011e2:    9844        D.      LDR      r0,[sp,#0x110]
        0x000011e4:    0680        ..      LSLS     r0,r0,#26
        0x000011e6:    0f40        @.      LSRS     r0,r0,#29
        0x000011e8:    903e        >.      STR      r0,[sp,#0xf8]
        0x000011ea:    9844        D.      LDR      r0,[sp,#0x110]
        0x000011ec:    2107        .!      MOVS     r1,#7
        0x000011ee:    4008        .@      ANDS     r0,r0,r1
        0x000011f0:    903d        =.      STR      r0,[sp,#0xf4]
        0x000011f2:    9846        F.      LDR      r0,[sp,#0x118]
        0x000011f4:    993e        >.      LDR      r1,[sp,#0xf8]
        0x000011f6:    0089        ..      LSLS     r1,r1,#2
        0x000011f8:    5840        @X      LDR      r0,[r0,r1]
        0x000011fa:    993c        <.      LDR      r1,[sp,#0xf0]
        0x000011fc:    1840        @.      ADDS     r0,r0,r1
        0x000011fe:    9042        B.      STR      r0,[sp,#0x108]
        0x00001200:    9846        F.      LDR      r0,[sp,#0x118]
        0x00001202:    993d        =.      LDR      r1,[sp,#0xf4]
        0x00001204:    0089        ..      LSLS     r1,r1,#2
        0x00001206:    5840        @X      LDR      r0,[r0,r1]
        0x00001208:    9041        A.      STR      r0,[sp,#0x104]
        0x0000120a:    983d        =.      LDR      r0,[sp,#0xf4]
        0x0000120c:    993e        >.      LDR      r1,[sp,#0xf8]
        0x0000120e:    4288        .B      CMP      r0,r1
        0x00001210:    d11b        ..      BNE      0x124a ; ProcessHardFault + 690
        0x00001212:    e7ff        ..      B        0x1214 ; ProcessHardFault + 636
        0x00001214:    9943        C.      LDR      r1,[sp,#0x10c]
        0x00001216:    9844        D.      LDR      r0,[sp,#0x110]
        0x00001218:    0502        ..      LSLS     r2,r0,#20
        0x0000121a:    4bfc        .K      LDR      r3,[pc,#1008] ; [0x160c] = 0x2c48
        0x0000121c:    4cfc        .L      LDR      r4,[pc,#1008] ; [0x1610] = 0x2c4c
        0x0000121e:    2a00        .*      CMP      r2,#0
        0x00001220:    9120         .      STR      r1,[sp,#0x80]
        0x00001222:    901f        ..      STR      r0,[sp,#0x7c]
        0x00001224:    941e        ..      STR      r4,[sp,#0x78]
        0x00001226:    931d        ..      STR      r3,[sp,#0x74]
        0x00001228:    d401        ..      BMI      0x122e ; ProcessHardFault + 662
        0x0000122a:    981e        ..      LDR      r0,[sp,#0x78]
        0x0000122c:    901d        ..      STR      r0,[sp,#0x74]
        0x0000122e:    981d        ..      LDR      r0,[sp,#0x74]
        0x00001230:    993d        =.      LDR      r1,[sp,#0xf4]
        0x00001232:    9a42        B.      LDR      r2,[sp,#0x108]
        0x00001234:    9201        ..      STR      r2,[sp,#4]
        0x00001236:    9100        ..      STR      r1,[sp,#0]
        0x00001238:    49f7        .I      LDR      r1,[pc,#988] ; [0x1618] = 0x2a46
        0x0000123a:    901c        ..      STR      r0,[sp,#0x70]
        0x0000123c:    4608        .F      MOV      r0,r1
        0x0000123e:    9920         .      LDR      r1,[sp,#0x80]
        0x00001240:    9a1f        ..      LDR      r2,[sp,#0x7c]
        0x00001242:    9b1c        ..      LDR      r3,[sp,#0x70]
        0x00001244:    f000fdc0    ....    BL       __0printf ; 0x1dc8
        0x00001248:    e01a        ..      B        0x1280 ; ProcessHardFault + 744
        0x0000124a:    9943        C.      LDR      r1,[sp,#0x10c]
        0x0000124c:    9844        D.      LDR      r0,[sp,#0x110]
        0x0000124e:    0502        ..      LSLS     r2,r0,#20
        0x00001250:    4bee        .K      LDR      r3,[pc,#952] ; [0x160c] = 0x2c48
        0x00001252:    4cef        .L      LDR      r4,[pc,#956] ; [0x1610] = 0x2c4c
        0x00001254:    2a00        .*      CMP      r2,#0
        0x00001256:    911b        ..      STR      r1,[sp,#0x6c]
        0x00001258:    901a        ..      STR      r0,[sp,#0x68]
        0x0000125a:    9419        ..      STR      r4,[sp,#0x64]
        0x0000125c:    9318        ..      STR      r3,[sp,#0x60]
        0x0000125e:    d401        ..      BMI      0x1264 ; ProcessHardFault + 716
        0x00001260:    9819        ..      LDR      r0,[sp,#0x64]
        0x00001262:    9018        ..      STR      r0,[sp,#0x60]
        0x00001264:    9818        ..      LDR      r0,[sp,#0x60]
        0x00001266:    9941        A.      LDR      r1,[sp,#0x104]
        0x00001268:    9a42        B.      LDR      r2,[sp,#0x108]
        0x0000126a:    9201        ..      STR      r2,[sp,#4]
        0x0000126c:    9100        ..      STR      r1,[sp,#0]
        0x0000126e:    49e9        .I      LDR      r1,[pc,#932] ; [0x1614] = 0x2a67
        0x00001270:    9017        ..      STR      r0,[sp,#0x5c]
        0x00001272:    4608        .F      MOV      r0,r1
        0x00001274:    991b        ..      LDR      r1,[sp,#0x6c]
        0x00001276:    9a1a        ..      LDR      r2,[sp,#0x68]
        0x00001278:    9b17        ..      LDR      r3,[sp,#0x5c]
        0x0000127a:    f000fda5    ....    BL       __0printf ; 0x1dc8
        0x0000127e:    e7ff        ..      B        0x1280 ; ProcessHardFault + 744
        0x00001280:    e03a        :.      B        0x12f8 ; ProcessHardFault + 864
        0x00001282:    9844        D.      LDR      r0,[sp,#0x110]
        0x00001284:    0b00        ..      LSRS     r0,r0,#12
        0x00001286:    2809        .(      CMP      r0,#9
        0x00001288:    d12e        ..      BNE      0x12e8 ; ProcessHardFault + 848
        0x0000128a:    e7ff        ..      B        0x128c ; ProcessHardFault + 756
        0x0000128c:    2003        .       MOVS     r0,#3
        0x0000128e:    903a        :.      STR      r0,[sp,#0xe8]
        0x00001290:    a844        D.      ADD      r0,sp,#0x110
        0x00001292:    7800        .x      LDRB     r0,[r0,#0]
        0x00001294:    903b        ;.      STR      r0,[sp,#0xec]
        0x00001296:    9844        D.      LDR      r0,[sp,#0x110]
        0x00001298:    0540        @.      LSLS     r0,r0,#21
        0x0000129a:    0f40        @.      LSRS     r0,r0,#29
        0x0000129c:    903d        =.      STR      r0,[sp,#0xf4]
        0x0000129e:    9846        F.      LDR      r0,[sp,#0x118]
        0x000012a0:    6980        .i      LDR      r0,[r0,#0x18]
        0x000012a2:    993b        ;.      LDR      r1,[sp,#0xec]
        0x000012a4:    1840        @.      ADDS     r0,r0,r1
        0x000012a6:    9042        B.      STR      r0,[sp,#0x108]
        0x000012a8:    9846        F.      LDR      r0,[sp,#0x118]
        0x000012aa:    993d        =.      LDR      r1,[sp,#0xf4]
        0x000012ac:    0089        ..      LSLS     r1,r1,#2
        0x000012ae:    5840        @X      LDR      r0,[r0,r1]
        0x000012b0:    9041        A.      STR      r0,[sp,#0x104]
        0x000012b2:    9943        C.      LDR      r1,[sp,#0x10c]
        0x000012b4:    9844        D.      LDR      r0,[sp,#0x110]
        0x000012b6:    0502        ..      LSLS     r2,r0,#20
        0x000012b8:    4bd4        .K      LDR      r3,[pc,#848] ; [0x160c] = 0x2c48
        0x000012ba:    4cd5        .L      LDR      r4,[pc,#852] ; [0x1610] = 0x2c4c
        0x000012bc:    2a00        .*      CMP      r2,#0
        0x000012be:    9116        ..      STR      r1,[sp,#0x58]
        0x000012c0:    9015        ..      STR      r0,[sp,#0x54]
        0x000012c2:    9414        ..      STR      r4,[sp,#0x50]
        0x000012c4:    9313        ..      STR      r3,[sp,#0x4c]
        0x000012c6:    d401        ..      BMI      0x12cc ; ProcessHardFault + 820
        0x000012c8:    9814        ..      LDR      r0,[sp,#0x50]
        0x000012ca:    9013        ..      STR      r0,[sp,#0x4c]
        0x000012cc:    9813        ..      LDR      r0,[sp,#0x4c]
        0x000012ce:    9941        A.      LDR      r1,[sp,#0x104]
        0x000012d0:    9a42        B.      LDR      r2,[sp,#0x108]
        0x000012d2:    9201        ..      STR      r2,[sp,#4]
        0x000012d4:    9100        ..      STR      r1,[sp,#0]
        0x000012d6:    49cf        .I      LDR      r1,[pc,#828] ; [0x1614] = 0x2a67
        0x000012d8:    9012        ..      STR      r0,[sp,#0x48]
        0x000012da:    4608        .F      MOV      r0,r1
        0x000012dc:    9916        ..      LDR      r1,[sp,#0x58]
        0x000012de:    9a15        ..      LDR      r2,[sp,#0x54]
        0x000012e0:    9b12        ..      LDR      r3,[sp,#0x48]
        0x000012e2:    f000fd71    ..q.    BL       __0printf ; 0x1dc8
        0x000012e6:    e006        ..      B        0x12f6 ; ProcessHardFault + 862
        0x000012e8:    2004        .       MOVS     r0,#4
        0x000012ea:    903a        :.      STR      r0,[sp,#0xe8]
        0x000012ec:    9944        D.      LDR      r1,[sp,#0x110]
        0x000012ee:    48c6        .H      LDR      r0,[pc,#792] ; [0x1608] = 0x290b
        0x000012f0:    f000fd6a    ..j.    BL       __0printf ; 0x1dc8
        0x000012f4:    e7ff        ..      B        0x12f6 ; ProcessHardFault + 862
        0x000012f6:    e7ff        ..      B        0x12f8 ; ProcessHardFault + 864
        0x000012f8:    e7ff        ..      B        0x12fa ; ProcessHardFault + 866
        0x000012fa:    e7ff        ..      B        0x12fc ; ProcessHardFault + 868
        0x000012fc:    e7ff        ..      B        0x12fe ; ProcessHardFault + 870
        0x000012fe:    e7ff        ..      B        0x1300 ; ProcessHardFault + 872
        0x00001300:    983a        :.      LDR      r0,[sp,#0xe8]
        0x00001302:    2803        .(      CMP      r0,#3
        0x00001304:    d000        ..      BEQ      0x1308 ; ProcessHardFault + 880
        0x00001306:    e16b        k.      B        0x15e0 ; 0x15e0
        0x00001308:    9840        @.      LDR      r0,[sp,#0x100]
        0x0000130a:    2800        .(      CMP      r0,#0
        0x0000130c:    d000        ..      BEQ      0x1310 ; ProcessHardFault + 888
        0x0000130e:    e0eb        ..      B        0x14e8 ; 0x14e8
        0x00001310:    2000        .       MOVS     r0,#0
        0x00001312:    9045        E.      STR      r0,[sp,#0x114]
        0x00001314:    e7ff        ..      B        0x1316 ; ProcessHardFault + 894
        0x00001316:    9845        E.      LDR      r0,[sp,#0x114]
        0x00001318:    2845        E(      CMP      r0,#0x45
        0x0000131a:    d900        ..      BLS      0x131e ; ProcessHardFault + 902
        0x0000131c:    e0e3        ..      B        0x14e6 ; 0x14e6
        0x0000131e:    9842        B.      LDR      r0,[sp,#0x108]
        0x00001320:    9945        E.      LDR      r1,[sp,#0x114]
        0x00001322:    2209        ."      MOVS     r2,#9
        0x00001324:    434a        JC      MULS     r2,r1,r2
        0x00001326:    49bd        .I      LDR      r1,[pc,#756] ; [0x161c] = 0x20000010
        0x00001328:    1889        ..      ADDS     r1,r1,r2
        0x0000132a:    790a        .y      LDRB     r2,[r1,#4]
        0x0000132c:    794b        Ky      LDRB     r3,[r1,#5]
        0x0000132e:    021b        ..      LSLS     r3,r3,#8
        0x00001330:    189a        ..      ADDS     r2,r3,r2
        0x00001332:    798b        .y      LDRB     r3,[r1,#6]
        0x00001334:    79c9        .y      LDRB     r1,[r1,#7]
        0x00001336:    0209        ..      LSLS     r1,r1,#8
        0x00001338:    18c9        ..      ADDS     r1,r1,r3
        0x0000133a:    0409        ..      LSLS     r1,r1,#16
        0x0000133c:    1889        ..      ADDS     r1,r1,r2
        0x0000133e:    4288        .B      CMP      r0,r1
        0x00001340:    d364        d.      BCC      0x140c ; 0x140c
        0x00001342:    e7ff        ..      B        0x1344 ; ProcessHardFault + 940
        0x00001344:    9842        B.      LDR      r0,[sp,#0x108]
        0x00001346:    9945        E.      LDR      r1,[sp,#0x114]
        0x00001348:    2209        ."      MOVS     r2,#9
        0x0000134a:    434a        JC      MULS     r2,r1,r2
        0x0000134c:    49b3        .I      LDR      r1,[pc,#716] ; [0x161c] = 0x20000010
        0x0000134e:    1851        Q.      ADDS     r1,r2,r1
        0x00001350:    7b4a        J{      LDRB     r2,[r1,#0xd]
        0x00001352:    7b8b        .{      LDRB     r3,[r1,#0xe]
        0x00001354:    021b        ..      LSLS     r3,r3,#8
        0x00001356:    189a        ..      ADDS     r2,r3,r2
        0x00001358:    7bcb        .{      LDRB     r3,[r1,#0xf]
        0x0000135a:    7c09        .|      LDRB     r1,[r1,#0x10]
        0x0000135c:    0209        ..      LSLS     r1,r1,#8
        0x0000135e:    18c9        ..      ADDS     r1,r1,r3
        0x00001360:    0409        ..      LSLS     r1,r1,#16
        0x00001362:    1889        ..      ADDS     r1,r1,r2
        0x00001364:    4288        .B      CMP      r0,r1
        0x00001366:    d251        Q.      BCS      0x140c ; 0x140c
        0x00001368:    e7ff        ..      B        0x136a ; ProcessHardFault + 978
        0x0000136a:    9845        E.      LDR      r0,[sp,#0x114]
        0x0000136c:    2109        .!      MOVS     r1,#9
        0x0000136e:    460a        .F      MOV      r2,r1
        0x00001370:    4342        BC      MULS     r2,r0,r2
        0x00001372:    48aa        .H      LDR      r0,[pc,#680] ; [0x161c] = 0x20000010
        0x00001374:    1882        ..      ADDS     r2,r0,r2
        0x00001376:    7a12        .z      LDRB     r2,[r2,#8]
        0x00001378:    ab39        9.      ADD      r3,sp,#0xe4
        0x0000137a:    701a        .p      STRB     r2,[r3,#0]
        0x0000137c:    781a        .x      LDRB     r2,[r3,#0]
        0x0000137e:    241f        .$      MOVS     r4,#0x1f
        0x00001380:    4022        "@      ANDS     r2,r2,r4
        0x00001382:    ac38        8.      ADD      r4,sp,#0xe0
        0x00001384:    7022        "p      STRB     r2,[r4,#0]
        0x00001386:    781a        .x      LDRB     r2,[r3,#0]
        0x00001388:    0952        R.      LSRS     r2,r2,#5
        0x0000138a:    701a        .p      STRB     r2,[r3,#0]
        0x0000138c:    781a        .x      LDRB     r2,[r3,#0]
        0x0000138e:    0092        ..      LSLS     r2,r2,#2
        0x00001390:    4bde        .K      LDR      r3,[pc,#888] ; [0x170c] = 0x4002f000
        0x00001392:    58d2        .X      LDR      r2,[r2,r3]
        0x00001394:    7823        #x      LDRB     r3,[r4,#0]
        0x00001396:    40da        .@      LSRS     r2,r2,r3
        0x00001398:    2301        .#      MOVS     r3,#1
        0x0000139a:    401a        .@      ANDS     r2,r2,r3
        0x0000139c:    9237        7.      STR      r2,[sp,#0xdc]
        0x0000139e:    9a37        7.      LDR      r2,[sp,#0xdc]
        0x000013a0:    4b9f        .K      LDR      r3,[pc,#636] ; [0x1620] = 0x2c60
        0x000013a2:    4ca0        .L      LDR      r4,[pc,#640] ; [0x1624] = 0x2c59
        0x000013a4:    2a00        .*      CMP      r2,#0
        0x000013a6:    9111        ..      STR      r1,[sp,#0x44]
        0x000013a8:    9010        ..      STR      r0,[sp,#0x40]
        0x000013aa:    940f        ..      STR      r4,[sp,#0x3c]
        0x000013ac:    930e        ..      STR      r3,[sp,#0x38]
        0x000013ae:    d101        ..      BNE      0x13b4 ; ProcessHardFault + 1052
        0x000013b0:    980f        ..      LDR      r0,[sp,#0x3c]
        0x000013b2:    900e        ..      STR      r0,[sp,#0x38]
        0x000013b4:    980e        ..      LDR      r0,[sp,#0x38]
        0x000013b6:    9945        E.      LDR      r1,[sp,#0x114]
        0x000013b8:    9a11        ..      LDR      r2,[sp,#0x44]
        0x000013ba:    434a        JC      MULS     r2,r1,r2
        0x000013bc:    9910        ..      LDR      r1,[sp,#0x40]
        0x000013be:    188b        ..      ADDS     r3,r1,r2
        0x000013c0:    5c8a        .\      LDRB     r2,[r1,r2]
        0x000013c2:    785c        \x      LDRB     r4,[r3,#1]
        0x000013c4:    0224        $.      LSLS     r4,r4,#8
        0x000013c6:    18a2        ..      ADDS     r2,r4,r2
        0x000013c8:    789c        .x      LDRB     r4,[r3,#2]
        0x000013ca:    78db        .x      LDRB     r3,[r3,#3]
        0x000013cc:    021b        ..      LSLS     r3,r3,#8
        0x000013ce:    191b        ..      ADDS     r3,r3,r4
        0x000013d0:    041b        ..      LSLS     r3,r3,#16
        0x000013d2:    189a        ..      ADDS     r2,r3,r2
        0x000013d4:    4b95        .K      LDR      r3,[pc,#596] ; [0x162c] = 0x2973
        0x000013d6:    900d        ..      STR      r0,[sp,#0x34]
        0x000013d8:    4618        .F      MOV      r0,r3
        0x000013da:    990d        ..      LDR      r1,[sp,#0x34]
        0x000013dc:    f000fcf4    ....    BL       __0printf ; 0x1dc8
        0x000013e0:    e081        ..      B        0x14e6 ; 0x14e6
        0x000013e2:    46c0        .F      MOV      r8,r8
    $d.1
        0x000013e4:    0000292e    .)..    DCD    10542
    __arm_cp.0_20
        0x000013e8:    00002a1c    .*..    DCD    10780
    __arm_cp.0_21
        0x000013ec:    00002af2    .*..    DCD    10994
    __arm_cp.0_22
        0x000013f0:    000029f0    .)..    DCD    10736
    __arm_cp.0_23
        0x000013f4:    0000beab    ....    DCD    48811
    __arm_cp.0_24
        0x000013f8:    00002a89    .*..    DCD    10889
        0x000013fc:    00002c48    H,..    DCD    11336
        0x00001400:    00002c4c    L,..    DCD    11340
        0x00001404:    00002a46    F*..    DCD    10822
        0x00001408:    00002a67    g*..    DCD    10855
    $t.2
        0x0000140c:    9842        B.      LDR      r0,[sp,#0x108]
        0x0000140e:    9945        E.      LDR      r1,[sp,#0x114]
        0x00001410:    2209        ."      MOVS     r2,#9
        0x00001412:    434a        JC      MULS     r2,r1,r2
        0x00001414:    4981        .I      LDR      r1,[pc,#516] ; [0x161c] = 0x20000010
        0x00001416:    1889        ..      ADDS     r1,r1,r2
        0x00001418:    790a        .y      LDRB     r2,[r1,#4]
        0x0000141a:    794b        Ky      LDRB     r3,[r1,#5]
        0x0000141c:    021b        ..      LSLS     r3,r3,#8
        0x0000141e:    189a        ..      ADDS     r2,r3,r2
        0x00001420:    798b        .y      LDRB     r3,[r1,#6]
        0x00001422:    79c9        .y      LDRB     r1,[r1,#7]
        0x00001424:    0209        ..      LSLS     r1,r1,#8
        0x00001426:    18c9        ..      ADDS     r1,r1,r3
        0x00001428:    0409        ..      LSLS     r1,r1,#16
        0x0000142a:    1889        ..      ADDS     r1,r1,r2
        0x0000142c:    2201        ."      MOVS     r2,#1
        0x0000142e:    0712        ..      LSLS     r2,r2,#28
        0x00001430:    1889        ..      ADDS     r1,r1,r2
        0x00001432:    4288        .B      CMP      r0,r1
        0x00001434:    d352        R.      BCC      0x14dc ; 0x14dc
        0x00001436:    e7ff        ..      B        0x1438 ; 0x1438
        0x00001438:    9842        B.      LDR      r0,[sp,#0x108]
        0x0000143a:    9945        E.      LDR      r1,[sp,#0x114]
        0x0000143c:    2209        ."      MOVS     r2,#9
        0x0000143e:    434a        JC      MULS     r2,r1,r2
        0x00001440:    4976        vI      LDR      r1,[pc,#472] ; [0x161c] = 0x20000010
        0x00001442:    1851        Q.      ADDS     r1,r2,r1
        0x00001444:    7b4a        J{      LDRB     r2,[r1,#0xd]
        0x00001446:    7b8b        .{      LDRB     r3,[r1,#0xe]
        0x00001448:    021b        ..      LSLS     r3,r3,#8
        0x0000144a:    189a        ..      ADDS     r2,r3,r2
        0x0000144c:    7bcb        .{      LDRB     r3,[r1,#0xf]
        0x0000144e:    7c09        .|      LDRB     r1,[r1,#0x10]
        0x00001450:    0209        ..      LSLS     r1,r1,#8
        0x00001452:    18c9        ..      ADDS     r1,r1,r3
        0x00001454:    0409        ..      LSLS     r1,r1,#16
        0x00001456:    1889        ..      ADDS     r1,r1,r2
        0x00001458:    2201        ."      MOVS     r2,#1
        0x0000145a:    0712        ..      LSLS     r2,r2,#28
        0x0000145c:    1889        ..      ADDS     r1,r1,r2
        0x0000145e:    4288        .B      CMP      r0,r1
        0x00001460:    d23c        <.      BCS      0x14dc ; 0x14dc
        0x00001462:    e7ff        ..      B        0x1464 ; 0x1464
        0x00001464:    9845        E.      LDR      r0,[sp,#0x114]
        0x00001466:    2109        .!      MOVS     r1,#9
        0x00001468:    460a        .F      MOV      r2,r1
        0x0000146a:    4342        BC      MULS     r2,r0,r2
        0x0000146c:    486b        kH      LDR      r0,[pc,#428] ; [0x161c] = 0x20000010
        0x0000146e:    1882        ..      ADDS     r2,r0,r2
        0x00001470:    7a12        .z      LDRB     r2,[r2,#8]
        0x00001472:    ab39        9.      ADD      r3,sp,#0xe4
        0x00001474:    701a        .p      STRB     r2,[r3,#0]
        0x00001476:    781a        .x      LDRB     r2,[r3,#0]
        0x00001478:    241f        .$      MOVS     r4,#0x1f
        0x0000147a:    4022        "@      ANDS     r2,r2,r4
        0x0000147c:    ac38        8.      ADD      r4,sp,#0xe0
        0x0000147e:    7022        "p      STRB     r2,[r4,#0]
        0x00001480:    781a        .x      LDRB     r2,[r3,#0]
        0x00001482:    0952        R.      LSRS     r2,r2,#5
        0x00001484:    701a        .p      STRB     r2,[r3,#0]
        0x00001486:    781a        .x      LDRB     r2,[r3,#0]
        0x00001488:    0092        ..      LSLS     r2,r2,#2
        0x0000148a:    4bc1        .K      LDR      r3,[pc,#772] ; [0x1790] = 0x4002f000
        0x0000148c:    58d2        .X      LDR      r2,[r2,r3]
        0x0000148e:    7823        #x      LDRB     r3,[r4,#0]
        0x00001490:    40da        .@      LSRS     r2,r2,r3
        0x00001492:    2301        .#      MOVS     r3,#1
        0x00001494:    401a        .@      ANDS     r2,r2,r3
        0x00001496:    9237        7.      STR      r2,[sp,#0xdc]
        0x00001498:    9a37        7.      LDR      r2,[sp,#0xdc]
        0x0000149a:    4b61        aK      LDR      r3,[pc,#388] ; [0x1620] = 0x2c60
        0x0000149c:    4c61        aL      LDR      r4,[pc,#388] ; [0x1624] = 0x2c59
        0x0000149e:    2a00        .*      CMP      r2,#0
        0x000014a0:    910c        ..      STR      r1,[sp,#0x30]
        0x000014a2:    900b        ..      STR      r0,[sp,#0x2c]
        0x000014a4:    940a        ..      STR      r4,[sp,#0x28]
        0x000014a6:    9309        ..      STR      r3,[sp,#0x24]
        0x000014a8:    d101        ..      BNE      0x14ae ; 0x14ae
        0x000014aa:    980a        ..      LDR      r0,[sp,#0x28]
        0x000014ac:    9009        ..      STR      r0,[sp,#0x24]
        0x000014ae:    9809        ..      LDR      r0,[sp,#0x24]
        0x000014b0:    9945        E.      LDR      r1,[sp,#0x114]
        0x000014b2:    9a0c        ..      LDR      r2,[sp,#0x30]
        0x000014b4:    434a        JC      MULS     r2,r1,r2
        0x000014b6:    990b        ..      LDR      r1,[sp,#0x2c]
        0x000014b8:    188b        ..      ADDS     r3,r1,r2
        0x000014ba:    5c8a        .\      LDRB     r2,[r1,r2]
        0x000014bc:    785c        \x      LDRB     r4,[r3,#1]
        0x000014be:    0224        $.      LSLS     r4,r4,#8
        0x000014c0:    18a2        ..      ADDS     r2,r4,r2
        0x000014c2:    789c        .x      LDRB     r4,[r3,#2]
        0x000014c4:    78db        .x      LDRB     r3,[r3,#3]
        0x000014c6:    021b        ..      LSLS     r3,r3,#8
        0x000014c8:    191b        ..      ADDS     r3,r3,r4
        0x000014ca:    041b        ..      LSLS     r3,r3,#16
        0x000014cc:    189a        ..      ADDS     r2,r3,r2
        0x000014ce:    4b56        VK      LDR      r3,[pc,#344] ; [0x1628] = 0x29a1
        0x000014d0:    9008        ..      STR      r0,[sp,#0x20]
        0x000014d2:    4618        .F      MOV      r0,r3
        0x000014d4:    9908        ..      LDR      r1,[sp,#0x20]
        0x000014d6:    f000fc77    ..w.    BL       __0printf ; 0x1dc8
        0x000014da:    e004        ..      B        0x14e6 ; 0x14e6
        0x000014dc:    e7ff        ..      B        0x14de ; 0x14de
        0x000014de:    9845        E.      LDR      r0,[sp,#0x114]
        0x000014e0:    1c40        @.      ADDS     r0,r0,#1
        0x000014e2:    9045        E.      STR      r0,[sp,#0x114]
        0x000014e4:    e717        ..      B        0x1316 ; ProcessHardFault + 894
        0x000014e6:    e07a        z.      B        0x15de ; 0x15de
        0x000014e8:    9842        B.      LDR      r0,[sp,#0x108]
        0x000014ea:    4951        QI      LDR      r1,[pc,#324] ; [0x1630] = 0x10000001
        0x000014ec:    4288        .B      CMP      r0,r1
        0x000014ee:    d375        u.      BCC      0x15dc ; 0x15dc
        0x000014f0:    e7ff        ..      B        0x14f2 ; 0x14f2
        0x000014f2:    2000        .       MOVS     r0,#0
        0x000014f4:    9045        E.      STR      r0,[sp,#0x114]
        0x000014f6:    e7ff        ..      B        0x14f8 ; 0x14f8
        0x000014f8:    9845        E.      LDR      r0,[sp,#0x114]
        0x000014fa:    2845        E(      CMP      r0,#0x45
        0x000014fc:    d86d        m.      BHI      0x15da ; 0x15da
        0x000014fe:    e7ff        ..      B        0x1500 ; 0x1500
        0x00001500:    9842        B.      LDR      r0,[sp,#0x108]
        0x00001502:    9945        E.      LDR      r1,[sp,#0x114]
        0x00001504:    2209        ."      MOVS     r2,#9
        0x00001506:    434a        JC      MULS     r2,r1,r2
        0x00001508:    4944        DI      LDR      r1,[pc,#272] ; [0x161c] = 0x20000010
        0x0000150a:    1889        ..      ADDS     r1,r1,r2
        0x0000150c:    790a        .y      LDRB     r2,[r1,#4]
        0x0000150e:    794b        Ky      LDRB     r3,[r1,#5]
        0x00001510:    021b        ..      LSLS     r3,r3,#8
        0x00001512:    189a        ..      ADDS     r2,r3,r2
        0x00001514:    798b        .y      LDRB     r3,[r1,#6]
        0x00001516:    79c9        .y      LDRB     r1,[r1,#7]
        0x00001518:    0209        ..      LSLS     r1,r1,#8
        0x0000151a:    18c9        ..      ADDS     r1,r1,r3
        0x0000151c:    0409        ..      LSLS     r1,r1,#16
        0x0000151e:    1889        ..      ADDS     r1,r1,r2
        0x00001520:    2201        ."      MOVS     r2,#1
        0x00001522:    0712        ..      LSLS     r2,r2,#28
        0x00001524:    1889        ..      ADDS     r1,r1,r2
        0x00001526:    4288        .B      CMP      r0,r1
        0x00001528:    d352        R.      BCC      0x15d0 ; 0x15d0
        0x0000152a:    e7ff        ..      B        0x152c ; 0x152c
        0x0000152c:    9842        B.      LDR      r0,[sp,#0x108]
        0x0000152e:    9945        E.      LDR      r1,[sp,#0x114]
        0x00001530:    2209        ."      MOVS     r2,#9
        0x00001532:    434a        JC      MULS     r2,r1,r2
        0x00001534:    4939        9I      LDR      r1,[pc,#228] ; [0x161c] = 0x20000010
        0x00001536:    1851        Q.      ADDS     r1,r2,r1
        0x00001538:    7b4a        J{      LDRB     r2,[r1,#0xd]
        0x0000153a:    7b8b        .{      LDRB     r3,[r1,#0xe]
        0x0000153c:    021b        ..      LSLS     r3,r3,#8
        0x0000153e:    189a        ..      ADDS     r2,r3,r2
        0x00001540:    7bcb        .{      LDRB     r3,[r1,#0xf]
        0x00001542:    7c09        .|      LDRB     r1,[r1,#0x10]
        0x00001544:    0209        ..      LSLS     r1,r1,#8
        0x00001546:    18c9        ..      ADDS     r1,r1,r3
        0x00001548:    0409        ..      LSLS     r1,r1,#16
        0x0000154a:    1889        ..      ADDS     r1,r1,r2
        0x0000154c:    2201        ."      MOVS     r2,#1
        0x0000154e:    0712        ..      LSLS     r2,r2,#28
        0x00001550:    1889        ..      ADDS     r1,r1,r2
        0x00001552:    4288        .B      CMP      r0,r1
        0x00001554:    d23c        <.      BCS      0x15d0 ; 0x15d0
        0x00001556:    e7ff        ..      B        0x1558 ; 0x1558
        0x00001558:    9845        E.      LDR      r0,[sp,#0x114]
        0x0000155a:    2109        .!      MOVS     r1,#9
        0x0000155c:    460a        .F      MOV      r2,r1
        0x0000155e:    4342        BC      MULS     r2,r0,r2
        0x00001560:    482e        .H      LDR      r0,[pc,#184] ; [0x161c] = 0x20000010
        0x00001562:    1882        ..      ADDS     r2,r0,r2
        0x00001564:    7a12        .z      LDRB     r2,[r2,#8]
        0x00001566:    ab39        9.      ADD      r3,sp,#0xe4
        0x00001568:    701a        .p      STRB     r2,[r3,#0]
        0x0000156a:    781a        .x      LDRB     r2,[r3,#0]
        0x0000156c:    241f        .$      MOVS     r4,#0x1f
        0x0000156e:    4022        "@      ANDS     r2,r2,r4
        0x00001570:    ac38        8.      ADD      r4,sp,#0xe0
        0x00001572:    7022        "p      STRB     r2,[r4,#0]
        0x00001574:    781a        .x      LDRB     r2,[r3,#0]
        0x00001576:    0952        R.      LSRS     r2,r2,#5
        0x00001578:    701a        .p      STRB     r2,[r3,#0]
        0x0000157a:    781a        .x      LDRB     r2,[r3,#0]
        0x0000157c:    0092        ..      LSLS     r2,r2,#2
        0x0000157e:    4b84        .K      LDR      r3,[pc,#528] ; [0x1790] = 0x4002f000
        0x00001580:    58d2        .X      LDR      r2,[r2,r3]
        0x00001582:    7823        #x      LDRB     r3,[r4,#0]
        0x00001584:    40da        .@      LSRS     r2,r2,r3
        0x00001586:    2301        .#      MOVS     r3,#1
        0x00001588:    401a        .@      ANDS     r2,r2,r3
        0x0000158a:    9237        7.      STR      r2,[sp,#0xdc]
        0x0000158c:    9a37        7.      LDR      r2,[sp,#0xdc]
        0x0000158e:    4b24        $K      LDR      r3,[pc,#144] ; [0x1620] = 0x2c60
        0x00001590:    4c24        $L      LDR      r4,[pc,#144] ; [0x1624] = 0x2c59
        0x00001592:    2a00        .*      CMP      r2,#0
        0x00001594:    9107        ..      STR      r1,[sp,#0x1c]
        0x00001596:    9006        ..      STR      r0,[sp,#0x18]
        0x00001598:    9405        ..      STR      r4,[sp,#0x14]
        0x0000159a:    9304        ..      STR      r3,[sp,#0x10]
        0x0000159c:    d101        ..      BNE      0x15a2 ; 0x15a2
        0x0000159e:    9805        ..      LDR      r0,[sp,#0x14]
        0x000015a0:    9004        ..      STR      r0,[sp,#0x10]
        0x000015a2:    9804        ..      LDR      r0,[sp,#0x10]
        0x000015a4:    9945        E.      LDR      r1,[sp,#0x114]
        0x000015a6:    9a07        ..      LDR      r2,[sp,#0x1c]
        0x000015a8:    434a        JC      MULS     r2,r1,r2
        0x000015aa:    9906        ..      LDR      r1,[sp,#0x18]
        0x000015ac:    188b        ..      ADDS     r3,r1,r2
        0x000015ae:    5c8a        .\      LDRB     r2,[r1,r2]
        0x000015b0:    785c        \x      LDRB     r4,[r3,#1]
        0x000015b2:    0224        $.      LSLS     r4,r4,#8
        0x000015b4:    18a2        ..      ADDS     r2,r4,r2
        0x000015b6:    789c        .x      LDRB     r4,[r3,#2]
        0x000015b8:    78db        .x      LDRB     r3,[r3,#3]
        0x000015ba:    021b        ..      LSLS     r3,r3,#8
        0x000015bc:    191b        ..      ADDS     r3,r3,r4
        0x000015be:    041b        ..      LSLS     r3,r3,#16
        0x000015c0:    189a        ..      ADDS     r2,r3,r2
        0x000015c2:    4b1c        .K      LDR      r3,[pc,#112] ; [0x1634] = 0x2aaf
        0x000015c4:    9003        ..      STR      r0,[sp,#0xc]
        0x000015c6:    4618        .F      MOV      r0,r3
        0x000015c8:    9903        ..      LDR      r1,[sp,#0xc]
        0x000015ca:    f000fbfd    ....    BL       __0printf ; 0x1dc8
        0x000015ce:    e004        ..      B        0x15da ; 0x15da
        0x000015d0:    e7ff        ..      B        0x15d2 ; 0x15d2
        0x000015d2:    9845        E.      LDR      r0,[sp,#0x114]
        0x000015d4:    1c40        @.      ADDS     r0,r0,#1
        0x000015d6:    9045        E.      STR      r0,[sp,#0x114]
        0x000015d8:    e78e        ..      B        0x14f8 ; 0x14f8
        0x000015da:    e7ff        ..      B        0x15dc ; 0x15dc
        0x000015dc:    e7ff        ..      B        0x15de ; 0x15de
        0x000015de:    e7ff        ..      B        0x15e0 ; 0x15e0
        0x000015e0:    f000f82a    ..*.    BL       SCU_IRQHandler ; 0x1638
        0x000015e4:    4807        .H      LDR      r0,[pc,#28] ; [0x1604] = 0x292e
        0x000015e6:    f000fbef    ....    BL       __0printf ; 0x1dc8
        0x000015ea:    e7ff        ..      B        0x15ec ; 0x15ec
        0x000015ec:    9846        F.      LDR      r0,[sp,#0x118]
        0x000015ee:    6800        .h      LDR      r0,[r0,#0]
        0x000015f0:    2101        .!      MOVS     r1,#1
        0x000015f2:    4308        .C      ORRS     r0,r0,r1
        0x000015f4:    2800        .(      CMP      r0,#0
        0x000015f6:    d001        ..      BEQ      0x15fc ; 0x15fc
        0x000015f8:    e7ff        ..      B        0x15fa ; 0x15fa
        0x000015fa:    e7f7        ..      B        0x15ec ; 0x15ec
        0x000015fc:    9849        I.      LDR      r0,[sp,#0x124]
        0x000015fe:    b04c        L.      ADD      sp,sp,#0x130
        0x00001600:    bd10        ..      POP      {r4,pc}
        0x00001602:    46c0        .F      MOV      r8,r8
    $d.3
    __arm_cp.0_0
        0x00001604:    0000292e    .)..    DCD    10542
    __arm_cp.0_5
        0x00001608:    0000290b    .)..    DCD    10507
    __arm_cp.0_6
        0x0000160c:    00002c48    H,..    DCD    11336
    __arm_cp.0_7
        0x00001610:    00002c4c    L,..    DCD    11340
    __arm_cp.0_8
        0x00001614:    00002a67    g*..    DCD    10855
    __arm_cp.0_9
        0x00001618:    00002a46    F*..    DCD    10822
    __arm_cp.0_11
        0x0000161c:    20000010    ...     DCD    536870928
    __arm_cp.0_13
        0x00001620:    00002c60    `,..    DCD    11360
    __arm_cp.0_14
        0x00001624:    00002c59    Y,..    DCD    11353
    __arm_cp.0_15
        0x00001628:    000029a1    .)..    DCD    10657
    __arm_cp.0_16
        0x0000162c:    00002973    s)..    DCD    10611
    __arm_cp.0_17
        0x00001630:    10000001    ....    DCD    268435457
    __arm_cp.0_18
        0x00001634:    00002aaf    .*..    DCD    10927
    $t.8
    SCU_IRQHandler
        0x00001638:    b580        ..      PUSH     {r7,lr}
        0x0000163a:    b0a8        ..      SUB      sp,sp,#0xa0
        0x0000163c:    a81c        ..      ADD      r0,sp,#0x70
        0x0000163e:    2130        0!      MOVS     r1,#0x30
        0x00001640:    f7fefe0f    ....    BL       __aeabi_memclr ; 0x262
        0x00001644:    4828        (H      LDR      r0,[pc,#160] ; [0x16e8] = 0x281a
        0x00001646:    901c        ..      STR      r0,[sp,#0x70]
        0x00001648:    4828        (H      LDR      r0,[pc,#160] ; [0x16ec] = 0x27ca
        0x0000164a:    901f        ..      STR      r0,[sp,#0x7c]
        0x0000164c:    4828        (H      LDR      r0,[pc,#160] ; [0x16f0] = 0x27d5
        0x0000164e:    9020         .      STR      r0,[sp,#0x80]
        0x00001650:    4828        (H      LDR      r0,[pc,#160] ; [0x16f4] = 0x2811
        0x00001652:    9021        !.      STR      r0,[sp,#0x84]
        0x00001654:    4828        (H      LDR      r0,[pc,#160] ; [0x16f8] = 0x27f9
        0x00001656:    9022        ".      STR      r0,[sp,#0x88]
        0x00001658:    4828        (H      LDR      r0,[pc,#160] ; [0x16fc] = 0x27e0
        0x0000165a:    9027        '.      STR      r0,[sp,#0x9c]
        0x0000165c:    4928        (I      LDR      r1,[pc,#160] ; [0x1700] = 0x26f4
        0x0000165e:    a809        ..      ADD      r0,sp,#0x24
        0x00001660:    224c        L"      MOVS     r2,#0x4c
        0x00001662:    f7fefde5    ....    BL       __aeabi_memcpy ; 0x230
        0x00001666:    4927        'I      LDR      r1,[pc,#156] ; [0x1704] = 0x26e0
        0x00001668:    a804        ..      ADD      r0,sp,#0x10
        0x0000166a:    2213        ."      MOVS     r2,#0x13
        0x0000166c:    f7fefde0    ....    BL       __aeabi_memcpy ; 0x230
        0x00001670:    4925        %I      LDR      r1,[pc,#148] ; [0x1708] = 0x4002f030
        0x00001672:    6809        .h      LDR      r1,[r1,#0]
        0x00001674:    9103        ..      STR      r1,[sp,#0xc]
        0x00001676:    9903        ..      LDR      r1,[sp,#0xc]
        0x00001678:    2900        .)      CMP      r1,#0
        0x0000167a:    d033        3.      BEQ      0x16e4 ; SCU_IRQHandler + 172
        0x0000167c:    e7ff        ..      B        0x167e ; SCU_IRQHandler + 70
        0x0000167e:    2000        .       MOVS     r0,#0
        0x00001680:    9001        ..      STR      r0,[sp,#4]
        0x00001682:    e7ff        ..      B        0x1684 ; SCU_IRQHandler + 76
        0x00001684:    9801        ..      LDR      r0,[sp,#4]
        0x00001686:    284b        K(      CMP      r0,#0x4b
        0x00001688:    d82b        +.      BHI      0x16e2 ; SCU_IRQHandler + 170
        0x0000168a:    e7ff        ..      B        0x168c ; SCU_IRQHandler + 84
        0x0000168c:    9803        ..      LDR      r0,[sp,#0xc]
        0x0000168e:    9901        ..      LDR      r1,[sp,#4]
        0x00001690:    40c8        .@      LSRS     r0,r0,r1
        0x00001692:    07c0        ..      LSLS     r0,r0,#31
        0x00001694:    2800        .(      CMP      r0,#0
        0x00001696:    d01f        ..      BEQ      0x16d8 ; SCU_IRQHandler + 160
        0x00001698:    e7ff        ..      B        0x169a ; SCU_IRQHandler + 98
        0x0000169a:    9801        ..      LDR      r0,[sp,#4]
        0x0000169c:    a904        ..      ADD      r1,sp,#0x10
        0x0000169e:    5c08        .\      LDRB     r0,[r1,r0]
        0x000016a0:    4a3c        <J      LDR      r2,[pc,#240] ; [0x1794] = 0x4002f004
        0x000016a2:    5880        .X      LDR      r0,[r0,r2]
        0x000016a4:    9002        ..      STR      r0,[sp,#8]
        0x000016a6:    9801        ..      LDR      r0,[sp,#4]
        0x000016a8:    0082        ..      LSLS     r2,r0,#2
        0x000016aa:    ab09        ..      ADD      r3,sp,#0x24
        0x000016ac:    589a        .X      LDR      r2,[r3,r2]
        0x000016ae:    9b02        ..      LDR      r3,[sp,#8]
        0x000016b0:    5c08        .\      LDRB     r0,[r1,r0]
        0x000016b2:    4937        7I      LDR      r1,[pc,#220] ; [0x1790] = 0x4002f000
        0x000016b4:    5840        @X      LDR      r0,[r0,r1]
        0x000016b6:    0080        ..      LSLS     r0,r0,#2
        0x000016b8:    a91c        ..      ADD      r1,sp,#0x70
        0x000016ba:    5808        .X      LDR      r0,[r1,r0]
        0x000016bc:    4914        .I      LDR      r1,[pc,#80] ; [0x1710] = 0x27a0
        0x000016be:    9000        ..      STR      r0,[sp,#0]
        0x000016c0:    4608        .F      MOV      r0,r1
        0x000016c2:    4611        .F      MOV      r1,r2
        0x000016c4:    461a        .F      MOV      r2,r3
        0x000016c6:    9b00        ..      LDR      r3,[sp,#0]
        0x000016c8:    f000fb7e    ..~.    BL       __0printf ; 0x1dc8
        0x000016cc:    9901        ..      LDR      r1,[sp,#4]
        0x000016ce:    2201        ."      MOVS     r2,#1
        0x000016d0:    408a        .@      LSLS     r2,r2,r1
        0x000016d2:    490d        .I      LDR      r1,[pc,#52] ; [0x1708] = 0x4002f030
        0x000016d4:    600a        .`      STR      r2,[r1,#0]
        0x000016d6:    e004        ..      B        0x16e2 ; SCU_IRQHandler + 170
        0x000016d8:    e7ff        ..      B        0x16da ; SCU_IRQHandler + 162
        0x000016da:    9801        ..      LDR      r0,[sp,#4]
        0x000016dc:    1c40        @.      ADDS     r0,r0,#1
        0x000016de:    9001        ..      STR      r0,[sp,#4]
        0x000016e0:    e7d0        ..      B        0x1684 ; SCU_IRQHandler + 76
        0x000016e2:    e7ff        ..      B        0x16e4 ; SCU_IRQHandler + 172
        0x000016e4:    b028        (.      ADD      sp,sp,#0xa0
        0x000016e6:    bd80        ..      POP      {r7,pc}
    $d.9
    __arm_cp.4_0
        0x000016e8:    0000281a    .(..    DCD    10266
    __arm_cp.4_1
        0x000016ec:    000027ca    .'..    DCD    10186
    __arm_cp.4_2
        0x000016f0:    000027d5    .'..    DCD    10197
    __arm_cp.4_3
        0x000016f4:    00002811    .(..    DCD    10257
    __arm_cp.4_4
        0x000016f8:    000027f9    .'..    DCD    10233
    __arm_cp.4_5
        0x000016fc:    000027e0    .'..    DCD    10208
    __arm_cp.4_6
        0x00001700:    000026f4    .&..    DCD    9972
    __arm_cp.4_7
        0x00001704:    000026e0    .&..    DCD    9952
    __arm_cp.4_8
        0x00001708:    4002f030    0..@    DCD    1073934384
    __arm_cp.4_10
        0x0000170c:    4002f000    ...@    DCD    1073934336
    __arm_cp.4_11
        0x00001710:    000027a0    .'..    DCD    10144
    $t.4
    SCU_Setup
        0x00001714:    b580        ..      PUSH     {r7,lr}
        0x00001716:    b082        ..      SUB      sp,sp,#8
        0x00001718:    481d        .H      LDR      r0,[pc,#116] ; [0x1790] = 0x4002f000
        0x0000171a:    2100        .!      MOVS     r1,#0
        0x0000171c:    6001        .`      STR      r1,[r0,#0]
        0x0000171e:    481d        .H      LDR      r0,[pc,#116] ; [0x1794] = 0x4002f004
        0x00001720:    6001        .`      STR      r1,[r0,#0]
        0x00001722:    481d        .H      LDR      r0,[pc,#116] ; [0x1798] = 0x4002f008
        0x00001724:    6001        .`      STR      r1,[r0,#0]
        0x00001726:    2001        .       MOVS     r0,#1
        0x00001728:    0400        ..      LSLS     r0,r0,#16
        0x0000172a:    4a1c        .J      LDR      r2,[pc,#112] ; [0x179c] = 0x4002f00c
        0x0000172c:    6010        .`      STR      r0,[r2,#0]
        0x0000172e:    481c        .H      LDR      r0,[pc,#112] ; [0x17a0] = 0x4002f010
        0x00001730:    6001        .`      STR      r1,[r0,#0]
        0x00001732:    481c        .H      LDR      r0,[pc,#112] ; [0x17a4] = 0x4002f014
        0x00001734:    6001        .`      STR      r1,[r0,#0]
        0x00001736:    481c        .H      LDR      r0,[pc,#112] ; [0x17a8] = 0x4002f018
        0x00001738:    6001        .`      STR      r1,[r0,#0]
        0x0000173a:    481c        .H      LDR      r0,[pc,#112] ; [0x17ac] = 0x4002f020
        0x0000173c:    2104        .!      MOVS     r1,#4
        0x0000173e:    6001        .`      STR      r1,[r0,#0]
        0x00001740:    200b        .       MOVS     r0,#0xb
        0x00001742:    9001        ..      STR      r0,[sp,#4]
        0x00001744:    e7ff        ..      B        0x1746 ; SCU_Setup + 50
        0x00001746:    9801        ..      LDR      r0,[sp,#4]
        0x00001748:    2804        .(      CMP      r0,#4
        0x0000174a:    db0c        ..      BLT      0x1766 ; SCU_Setup + 82
        0x0000174c:    e7ff        ..      B        0x174e ; SCU_Setup + 58
        0x0000174e:    9801        ..      LDR      r0,[sp,#4]
        0x00001750:    2101        .!      MOVS     r1,#1
        0x00001752:    4081        .@      LSLS     r1,r1,r0
        0x00001754:    4819        .H      LDR      r0,[pc,#100] ; [0x17bc] = 0x4002f024
        0x00001756:    6802        .h      LDR      r2,[r0,#0]
        0x00001758:    430a        .C      ORRS     r2,r2,r1
        0x0000175a:    6002        .`      STR      r2,[r0,#0]
        0x0000175c:    e7ff        ..      B        0x175e ; SCU_Setup + 74
        0x0000175e:    9801        ..      LDR      r0,[sp,#4]
        0x00001760:    1e40        @.      SUBS     r0,r0,#1
        0x00001762:    9001        ..      STR      r0,[sp,#4]
        0x00001764:    e7ef        ..      B        0x1746 ; SCU_Setup + 50
        0x00001766:    4812        .H      LDR      r0,[pc,#72] ; [0x17b0] = 0xe000e384
        0x00001768:    6801        .h      LDR      r1,[r0,#0]
        0x0000176a:    2210        ."      MOVS     r2,#0x10
        0x0000176c:    4311        .C      ORRS     r1,r1,r2
        0x0000176e:    6001        .`      STR      r1,[r0,#0]
        0x00001770:    4810        .H      LDR      r0,[pc,#64] ; [0x17b4] = 0xe000e380
        0x00001772:    6801        .h      LDR      r1,[r0,#0]
        0x00001774:    2201        ."      MOVS     r2,#1
        0x00001776:    0492        ..      LSLS     r2,r2,#18
        0x00001778:    4311        .C      ORRS     r1,r1,r2
        0x0000177a:    6001        .`      STR      r1,[r0,#0]
        0x0000177c:    2000        .       MOVS     r0,#0
        0x0000177e:    43c0        .C      MVNS     r0,r0
        0x00001780:    490d        .I      LDR      r1,[pc,#52] ; [0x17b8] = 0x4002f02c
        0x00001782:    6008        .`      STR      r0,[r1,#0]
        0x00001784:    2063        c       MOVS     r0,#0x63
        0x00001786:    f000fa73    ..s.    BL       __NVIC_EnableIRQ ; 0x1c70
        0x0000178a:    b002        ..      ADD      sp,sp,#8
        0x0000178c:    bd80        ..      POP      {r7,pc}
        0x0000178e:    46c0        .F      MOV      r8,r8
    $d.5
    __arm_cp.2_0
        0x00001790:    4002f000    ...@    DCD    1073934336
    __arm_cp.2_1
        0x00001794:    4002f004    ...@    DCD    1073934340
    __arm_cp.2_2
        0x00001798:    4002f008    ...@    DCD    1073934344
    __arm_cp.2_3
        0x0000179c:    4002f00c    ...@    DCD    1073934348
    __arm_cp.2_4
        0x000017a0:    4002f010    ...@    DCD    1073934352
    __arm_cp.2_5
        0x000017a4:    4002f014    ...@    DCD    1073934356
    __arm_cp.2_6
        0x000017a8:    4002f018    ...@    DCD    1073934360
    __arm_cp.2_7
        0x000017ac:    4002f020     ..@    DCD    1073934368
    __arm_cp.2_8
        0x000017b0:    e000e384    ....    DCD    3758154628
    __arm_cp.2_9
        0x000017b4:    e000e380    ....    DCD    3758154624
    __arm_cp.2_10
        0x000017b8:    4002f02c    ,..@    DCD    1073934380
    __arm_cp.2_11
        0x000017bc:    4002f024    $..@    DCD    1073934372
    $t.4
    SH_Return
        0x000017c0:    b083        ..      SUB      sp,sp,#0xc
        0x000017c2:    9002        ..      STR      r0,[sp,#8]
        0x000017c4:    9101        ..      STR      r1,[sp,#4]
        0x000017c6:    9200        ..      STR      r2,[sp,#0]
        0x000017c8:    2000        .       MOVS     r0,#0
        0x000017ca:    b003        ..      ADD      sp,sp,#0xc
        0x000017cc:    4770        pG      BX       lr
        0x000017ce:    0000        ..      MOVS     r0,r0
    SYS_Init
        0x000017d0:    b570        p.      PUSH     {r4-r6,lr}
        0x000017d2:    b084        ..      SUB      sp,sp,#0x10
        0x000017d4:    4828        (H      LDR      r0,[pc,#160] ; [0x1878] = 0x40000240
        0x000017d6:    4929        )I      LDR      r1,[pc,#164] ; [0x187c] = 0x8040e
        0x000017d8:    6001        .`      STR      r1,[r0,#0]
        0x000017da:    e7ff        ..      B        0x17dc ; SYS_Init + 12
        0x000017dc:    4828        (H      LDR      r0,[pc,#160] ; [0x1880] = 0x40000250
        0x000017de:    6800        .h      LDR      r0,[r0,#0]
        0x000017e0:    0740        @.      LSLS     r0,r0,#29
        0x000017e2:    2800        .(      CMP      r0,#0
        0x000017e4:    d401        ..      BMI      0x17ea ; SYS_Init + 26
        0x000017e6:    e7ff        ..      B        0x17e8 ; SYS_Init + 24
        0x000017e8:    e7f8        ..      B        0x17dc ; SYS_Init + 12
        0x000017ea:    4826        &H      LDR      r0,[pc,#152] ; [0x1884] = 0x40000220
        0x000017ec:    6801        .h      LDR      r1,[r0,#0]
        0x000017ee:    2201        ."      MOVS     r2,#1
        0x000017f0:    4311        .C      ORRS     r1,r1,r2
        0x000017f2:    230e        .#      MOVS     r3,#0xe
        0x000017f4:    4399        .C      BICS     r1,r1,r3
        0x000017f6:    6001        .`      STR      r1,[r0,#0]
        0x000017f8:    4823        #H      LDR      r0,[pc,#140] ; [0x1888] = 0x40000210
        0x000017fa:    6801        .h      LDR      r1,[r0,#0]
        0x000017fc:    2302        .#      MOVS     r3,#2
        0x000017fe:    4319        .C      ORRS     r1,r1,r3
        0x00001800:    2305        .#      MOVS     r3,#5
        0x00001802:    4399        .C      BICS     r1,r1,r3
        0x00001804:    6001        .`      STR      r1,[r0,#0]
        0x00001806:    4821        !H      LDR      r0,[pc,#132] ; [0x188c] = 0x40000208
        0x00001808:    6801        .h      LDR      r1,[r0,#0]
        0x0000180a:    0413        ..      LSLS     r3,r2,#16
        0x0000180c:    4319        .C      ORRS     r1,r1,r3
        0x0000180e:    6001        .`      STR      r1,[r0,#0]
        0x00001810:    491f        .I      LDR      r1,[pc,#124] ; [0x1890] = 0x40000214
        0x00001812:    680b        .h      LDR      r3,[r1,#0]
        0x00001814:    2403        .$      MOVS     r4,#3
        0x00001816:    0625        %.      LSLS     r5,r4,#24
        0x00001818:    432b        +C      ORRS     r3,r3,r5
        0x0000181a:    600b        .`      STR      r3,[r1,#0]
        0x0000181c:    9203        ..      STR      r2,[sp,#0xc]
        0x0000181e:    9002        ..      STR      r0,[sp,#8]
        0x00001820:    9101        ..      STR      r1,[sp,#4]
        0x00001822:    9400        ..      STR      r4,[sp,#0]
        0x00001824:    f000f9ac    ....    BL       SystemCoreClockUpdate ; 0x1b80
        0x00001828:    481a        .H      LDR      r0,[pc,#104] ; [0x1894] = 0x4000003c
        0x0000182a:    6801        .h      LDR      r1,[r0,#0]
        0x0000182c:    22ff        ."      MOVS     r2,#0xff
        0x0000182e:    0412        ..      LSLS     r2,r2,#16
        0x00001830:    4391        .C      BICS     r1,r1,r2
        0x00001832:    2233        3"      MOVS     r2,#0x33
        0x00001834:    0452        R.      LSLS     r2,r2,#17
        0x00001836:    1889        ..      ADDS     r1,r1,r2
        0x00001838:    6001        .`      STR      r1,[r0,#0]
        0x0000183a:    9802        ..      LDR      r0,[sp,#8]
        0x0000183c:    6801        .h      LDR      r1,[r0,#0]
        0x0000183e:    9a03        ..      LDR      r2,[sp,#0xc]
        0x00001840:    0453        S.      LSLS     r3,r2,#17
        0x00001842:    4319        .C      ORRS     r1,r1,r3
        0x00001844:    6001        .`      STR      r1,[r0,#0]
        0x00001846:    9901        ..      LDR      r1,[sp,#4]
        0x00001848:    680b        .h      LDR      r3,[r1,#0]
        0x0000184a:    9c00        ..      LDR      r4,[sp,#0]
        0x0000184c:    06a5        ..      LSLS     r5,r4,#26
        0x0000184e:    432b        +C      ORRS     r3,r3,r5
        0x00001850:    600b        .`      STR      r3,[r1,#0]
        0x00001852:    4b11        .K      LDR      r3,[pc,#68] ; [0x1898] = 0x40000030
        0x00001854:    681d        .h      LDR      r5,[r3,#0]
        0x00001856:    f6407600    @..v    MOVW     r6,#0xf00
        0x0000185a:    43b5        .C      BICS     r5,r5,r6
        0x0000185c:    f6400600    @...    MOVW     r6,#0x800
        0x00001860:    19ad        ..      ADDS     r5,r5,r6
        0x00001862:    601d        .`      STR      r5,[r3,#0]
        0x00001864:    681d        .h      LDR      r5,[r3,#0]
        0x00001866:    f24f0600    O...    MOVW     r6,#0xf000
        0x0000186a:    43b5        .C      BICS     r5,r5,r6
        0x0000186c:    f2480600    H...    MOVW     r6,#0x8000
        0x00001870:    19ad        ..      ADDS     r5,r5,r6
        0x00001872:    601d        .`      STR      r5,[r3,#0]
        0x00001874:    b004        ..      ADD      sp,sp,#0x10
        0x00001876:    bd70        p.      POP      {r4-r6,pc}
    $d.23
    __arm_cp.11_0
        0x00001878:    40000240    @..@    DCD    1073742400
    __arm_cp.11_1
        0x0000187c:    0008040e    ....    DCD    525326
    __arm_cp.11_2
        0x00001880:    40000250    P..@    DCD    1073742416
    __arm_cp.11_3
        0x00001884:    40000220     ..@    DCD    1073742368
    __arm_cp.11_4
        0x00001888:    40000210    ...@    DCD    1073742352
    __arm_cp.11_5
        0x0000188c:    40000208    ...@    DCD    1073742344
    __arm_cp.11_6
        0x00001890:    40000214    ...@    DCD    1073742356
    __arm_cp.11_7
        0x00001894:    4000003c    <..@    DCD    1073741884
    __arm_cp.11_8
        0x00001898:    40000030    0..@    DCD    1073741872
    $t.2
    SYS_UnlockReg
        0x0000189c:    e7ff        ..      B        0x189e ; SYS_UnlockReg + 2
        0x0000189e:    480f        .H      LDR      r0,[pc,#60] ; [0x18dc] = 0x40000100
        0x000018a0:    2159        Y!      MOVS     r1,#0x59
        0x000018a2:    6001        .`      STR      r1,[r0,#0]
        0x000018a4:    2116        .!      MOVS     r1,#0x16
        0x000018a6:    6001        .`      STR      r1,[r0,#0]
        0x000018a8:    2188        .!      MOVS     r1,#0x88
        0x000018aa:    6001        .`      STR      r1,[r0,#0]
        0x000018ac:    e7ff        ..      B        0x18ae ; SYS_UnlockReg + 18
        0x000018ae:    480b        .H      LDR      r0,[pc,#44] ; [0x18dc] = 0x40000100
        0x000018b0:    6800        .h      LDR      r0,[r0,#0]
        0x000018b2:    2800        .(      CMP      r0,#0
        0x000018b4:    d0f3        ..      BEQ      0x189e ; SYS_UnlockReg + 2
        0x000018b6:    e7ff        ..      B        0x18b8 ; SYS_UnlockReg + 28
        0x000018b8:    4770        pG      BX       lr
        0x000018ba:    46c0        .F      MOV      r8,r8
    SYS_UnlockReg
        0x000018bc:    e7ff        ..      B        0x18be ; SYS_UnlockReg + 2
        0x000018be:    4807        .H      LDR      r0,[pc,#28] ; [0x18dc] = 0x40000100
        0x000018c0:    2159        Y!      MOVS     r1,#0x59
        0x000018c2:    6001        .`      STR      r1,[r0,#0]
        0x000018c4:    2116        .!      MOVS     r1,#0x16
        0x000018c6:    6001        .`      STR      r1,[r0,#0]
        0x000018c8:    2188        .!      MOVS     r1,#0x88
        0x000018ca:    6001        .`      STR      r1,[r0,#0]
        0x000018cc:    e7ff        ..      B        0x18ce ; SYS_UnlockReg + 18
        0x000018ce:    4803        .H      LDR      r0,[pc,#12] ; [0x18dc] = 0x40000100
        0x000018d0:    6800        .h      LDR      r0,[r0,#0]
        0x000018d2:    2800        .(      CMP      r0,#0
        0x000018d4:    d0f3        ..      BEQ      0x18be ; SYS_UnlockReg + 2
        0x000018d6:    e7ff        ..      B        0x18d8 ; SYS_UnlockReg + 28
        0x000018d8:    4770        pG      BX       lr
        0x000018da:    46c0        .F      MOV      r8,r8
    $d.21
    __arm_cp.10_0
        0x000018dc:    40000100    ...@    DCD    1073742080
    $t.4
    __acle_se_Secure_LED_Off
        0x000018e0:    b580        ..      PUSH     {r7,lr}
        0x000018e2:    b082        ..      SUB      sp,sp,#8
        0x000018e4:    9001        ..      STR      r0,[sp,#4]
        0x000018e6:    480a        .H      LDR      r0,[pc,#40] ; [0x1910] = 0x2882
        0x000018e8:    f000fa6e    ..n.    BL       __0printf ; 0x1dc8
        0x000018ec:    491f        .I      LDR      r1,[pc,#124] ; [0x196c] = 0x40004828
        0x000018ee:    2201        ."      MOVS     r2,#1
        0x000018f0:    600a        .`      STR      r2,[r1,#0]
        0x000018f2:    491f        .I      LDR      r1,[pc,#124] ; [0x1970] = 0x40004840
        0x000018f4:    600a        .`      STR      r2,[r1,#0]
        0x000018f6:    9000        ..      STR      r0,[sp,#0]
        0x000018f8:    4610        .F      MOV      r0,r2
        0x000018fa:    b002        ..      ADD      sp,sp,#8
        0x000018fc:    bc80        ..      POP      {r7}
        0x000018fe:    bc02        ..      POP      {r1}
        0x00001900:    468e        .F      MOV      lr,r1
        0x00001902:    4671        qF      MOV      r1,lr
        0x00001904:    4672        rF      MOV      r2,lr
        0x00001906:    4673        sF      MOV      r3,lr
        0x00001908:    46f4        .F      MOV      r12,lr
        0x0000190a:    f38e8800    ....    MSR      APSR_nzcvq,lr ; formerly CPSR_f
        0x0000190e:    4774        tG      BXNS     lr
    $d.5
    __arm_cp.2_0
        0x00001910:    00002882    .(..    DCD    10370
    $t.8
    __acle_se_Secure_LED_Off_callback
        0x00001914:    b082        ..      SUB      sp,sp,#8
        0x00001916:    9001        ..      STR      r0,[sp,#4]
        0x00001918:    9801        ..      LDR      r0,[sp,#4]
        0x0000191a:    2101        .!      MOVS     r1,#1
        0x0000191c:    4388        .C      BICS     r0,r0,r1
        0x0000191e:    9000        ..      STR      r0,[sp,#0]
        0x00001920:    9800        ..      LDR      r0,[sp,#0]
        0x00001922:    4994        .I      LDR      r1,[pc,#592] ; [0x1b74] = 0x200002e4
        0x00001924:    6008        .`      STR      r0,[r1,#0]
        0x00001926:    2000        .       MOVS     r0,#0
        0x00001928:    b002        ..      ADD      sp,sp,#8
        0x0000192a:    4671        qF      MOV      r1,lr
        0x0000192c:    4672        rF      MOV      r2,lr
        0x0000192e:    4673        sF      MOV      r3,lr
        0x00001930:    46f4        .F      MOV      r12,lr
        0x00001932:    f38e8800    ....    MSR      APSR_nzcvq,lr ; formerly CPSR_f
        0x00001936:    4774        tG      BXNS     lr
    __acle_se_Secure_LED_On
        0x00001938:    b580        ..      PUSH     {r7,lr}
        0x0000193a:    b082        ..      SUB      sp,sp,#8
        0x0000193c:    9001        ..      STR      r0,[sp,#4]
        0x0000193e:    480a        .H      LDR      r0,[pc,#40] ; [0x1968] = 0x28a5
        0x00001940:    f000fa42    ..B.    BL       __0printf ; 0x1dc8
        0x00001944:    4909        .I      LDR      r1,[pc,#36] ; [0x196c] = 0x40004828
        0x00001946:    2200        ."      MOVS     r2,#0
        0x00001948:    600a        .`      STR      r2,[r1,#0]
        0x0000194a:    4909        .I      LDR      r1,[pc,#36] ; [0x1970] = 0x40004840
        0x0000194c:    600a        .`      STR      r2,[r1,#0]
        0x0000194e:    9000        ..      STR      r0,[sp,#0]
        0x00001950:    4610        .F      MOV      r0,r2
        0x00001952:    b002        ..      ADD      sp,sp,#8
        0x00001954:    bc80        ..      POP      {r7}
        0x00001956:    bc02        ..      POP      {r1}
        0x00001958:    468e        .F      MOV      lr,r1
        0x0000195a:    4671        qF      MOV      r1,lr
        0x0000195c:    4672        rF      MOV      r2,lr
        0x0000195e:    4673        sF      MOV      r3,lr
        0x00001960:    46f4        .F      MOV      r12,lr
        0x00001962:    f38e8800    ....    MSR      APSR_nzcvq,lr ; formerly CPSR_f
        0x00001966:    4774        tG      BXNS     lr
    $d.3
    __arm_cp.1_0
        0x00001968:    000028a5    .(..    DCD    10405
    __arm_cp.1_1
        0x0000196c:    40004828    (H.@    DCD    1073760296
    __arm_cp.1_2
        0x00001970:    40004840    @H.@    DCD    1073760320
    $t.6
    __acle_se_Secure_LED_On_callback
        0x00001974:    b082        ..      SUB      sp,sp,#8
        0x00001976:    9001        ..      STR      r0,[sp,#4]
        0x00001978:    9801        ..      LDR      r0,[sp,#4]
        0x0000197a:    2101        .!      MOVS     r1,#1
        0x0000197c:    4388        .C      BICS     r0,r0,r1
        0x0000197e:    9000        ..      STR      r0,[sp,#0]
        0x00001980:    9800        ..      LDR      r0,[sp,#0]
        0x00001982:    497d        }I      LDR      r1,[pc,#500] ; [0x1b78] = 0x200002e8
        0x00001984:    6008        .`      STR      r0,[r1,#0]
        0x00001986:    2000        .       MOVS     r0,#0
        0x00001988:    b002        ..      ADD      sp,sp,#8
        0x0000198a:    4671        qF      MOV      r1,lr
        0x0000198c:    4672        rF      MOV      r2,lr
        0x0000198e:    4673        sF      MOV      r3,lr
        0x00001990:    46f4        .F      MOV      r12,lr
        0x00001992:    f38e8800    ....    MSR      APSR_nzcvq,lr ; formerly CPSR_f
        0x00001996:    4774        tG      BXNS     lr
    __acle_se_Secure_func
        0x00001998:    b580        ..      PUSH     {r7,lr}
        0x0000199a:    b082        ..      SUB      sp,sp,#8
        0x0000199c:    4808        .H      LDR      r0,[pc,#32] ; [0x19c0] = 0x2871
        0x0000199e:    f000fa13    ....    BL       __0printf ; 0x1dc8
        0x000019a2:    2101        .!      MOVS     r1,#1
        0x000019a4:    9001        ..      STR      r0,[sp,#4]
        0x000019a6:    4608        .F      MOV      r0,r1
        0x000019a8:    b002        ..      ADD      sp,sp,#8
        0x000019aa:    bc80        ..      POP      {r7}
        0x000019ac:    bc02        ..      POP      {r1}
        0x000019ae:    468e        .F      MOV      lr,r1
        0x000019b0:    4671        qF      MOV      r1,lr
        0x000019b2:    4672        rF      MOV      r2,lr
        0x000019b4:    4673        sF      MOV      r3,lr
        0x000019b6:    46f4        .F      MOV      r12,lr
        0x000019b8:    f38e8800    ....    MSR      APSR_nzcvq,lr ; formerly CPSR_f
        0x000019bc:    4774        tG      BXNS     lr
        0x000019be:    46c0        .F      MOV      r8,r8
    $d.1
    __arm_cp.0_0
        0x000019c0:    00002871    q(..    DCD    10353
    $t.7
    SendChar
        0x000019c4:    b580        ..      PUSH     {r7,lr}
        0x000019c6:    b082        ..      SUB      sp,sp,#8
        0x000019c8:    9001        ..      STR      r0,[sp,#4]
        0x000019ca:    9801        ..      LDR      r0,[sp,#4]
        0x000019cc:    f000f802    ....    BL       SendChar_ToUART ; 0x19d4
        0x000019d0:    b002        ..      ADD      sp,sp,#8
        0x000019d2:    bd80        ..      POP      {r7,pc}
    SendChar_ToUART
        0x000019d4:    b081        ..      SUB      sp,sp,#4
        0x000019d6:    9000        ..      STR      r0,[sp,#0]
        0x000019d8:    e7ff        ..      B        0x19da ; SendChar_ToUART + 6
        0x000019da:    480e        .H      LDR      r0,[pc,#56] ; [0x1a14] = 0x50070018
        0x000019dc:    6800        .h      LDR      r0,[r0,#0]
        0x000019de:    0200        ..      LSLS     r0,r0,#8
        0x000019e0:    2800        .(      CMP      r0,#0
        0x000019e2:    d501        ..      BPL      0x19e8 ; SendChar_ToUART + 20
        0x000019e4:    e7ff        ..      B        0x19e6 ; SendChar_ToUART + 18
        0x000019e6:    e7f8        ..      B        0x19da ; SendChar_ToUART + 6
        0x000019e8:    4668        hF      MOV      r0,sp
        0x000019ea:    7800        .x      LDRB     r0,[r0,#0]
        0x000019ec:    280a        .(      CMP      r0,#0xa
        0x000019ee:    d10c        ..      BNE      0x1a0a ; SendChar_ToUART + 54
        0x000019f0:    e7ff        ..      B        0x19f2 ; SendChar_ToUART + 30
        0x000019f2:    4809        .H      LDR      r0,[pc,#36] ; [0x1a18] = 0x50070000
        0x000019f4:    210d        .!      MOVS     r1,#0xd
        0x000019f6:    6001        .`      STR      r1,[r0,#0]
        0x000019f8:    e7ff        ..      B        0x19fa ; SendChar_ToUART + 38
        0x000019fa:    4806        .H      LDR      r0,[pc,#24] ; [0x1a14] = 0x50070018
        0x000019fc:    6800        .h      LDR      r0,[r0,#0]
        0x000019fe:    0200        ..      LSLS     r0,r0,#8
        0x00001a00:    2800        .(      CMP      r0,#0
        0x00001a02:    d501        ..      BPL      0x1a08 ; SendChar_ToUART + 52
        0x00001a04:    e7ff        ..      B        0x1a06 ; SendChar_ToUART + 50
        0x00001a06:    e7f8        ..      B        0x19fa ; SendChar_ToUART + 38
        0x00001a08:    e7ff        ..      B        0x1a0a ; SendChar_ToUART + 54
        0x00001a0a:    9800        ..      LDR      r0,[sp,#0]
        0x00001a0c:    4902        .I      LDR      r1,[pc,#8] ; [0x1a18] = 0x50070000
        0x00001a0e:    6008        .`      STR      r0,[r1,#0]
        0x00001a10:    b001        ..      ADD      sp,sp,#4
        0x00001a12:    4770        pG      BX       lr
    $d.6
    __arm_cp.2_0
        0x00001a14:    50070018    ...P    DCD    1342636056
    __arm_cp.2_1
        0x00001a18:    50070000    ...P    DCD    1342636032
    $t.26
    SysTick_Config
        0x00001a1c:    b580        ..      PUSH     {r7,lr}
        0x00001a1e:    b084        ..      SUB      sp,sp,#0x10
        0x00001a20:    9002        ..      STR      r0,[sp,#8]
        0x00001a22:    9802        ..      LDR      r0,[sp,#8]
        0x00001a24:    1e40        @.      SUBS     r0,r0,#1
        0x00001a26:    0e00        ..      LSRS     r0,r0,#24
        0x00001a28:    2800        .(      CMP      r0,#0
        0x00001a2a:    d003        ..      BEQ      0x1a34 ; SysTick_Config + 24
        0x00001a2c:    e7ff        ..      B        0x1a2e ; SysTick_Config + 18
        0x00001a2e:    2001        .       MOVS     r0,#1
        0x00001a30:    9003        ..      STR      r0,[sp,#0xc]
        0x00001a32:    e013        ..      B        0x1a5c ; SysTick_Config + 64
        0x00001a34:    9802        ..      LDR      r0,[sp,#8]
        0x00001a36:    1e40        @.      SUBS     r0,r0,#1
        0x00001a38:    490a        .I      LDR      r1,[pc,#40] ; [0x1a64] = 0xe000e014
        0x00001a3a:    6008        .`      STR      r0,[r1,#0]
        0x00001a3c:    2000        .       MOVS     r0,#0
        0x00001a3e:    43c1        .C      MVNS     r1,r0
        0x00001a40:    2203        ."      MOVS     r2,#3
        0x00001a42:    9001        ..      STR      r0,[sp,#4]
        0x00001a44:    4608        .F      MOV      r0,r1
        0x00001a46:    4611        .F      MOV      r1,r2
        0x00001a48:    f000f928    ..(.    BL       __NVIC_SetPriority ; 0x1c9c
        0x00001a4c:    4806        .H      LDR      r0,[pc,#24] ; [0x1a68] = 0xe000e018
        0x00001a4e:    9901        ..      LDR      r1,[sp,#4]
        0x00001a50:    6001        .`      STR      r1,[r0,#0]
        0x00001a52:    4806        .H      LDR      r0,[pc,#24] ; [0x1a6c] = 0xe000e010
        0x00001a54:    2207        ."      MOVS     r2,#7
        0x00001a56:    6002        .`      STR      r2,[r0,#0]
        0x00001a58:    9103        ..      STR      r1,[sp,#0xc]
        0x00001a5a:    e7ff        ..      B        0x1a5c ; SysTick_Config + 64
        0x00001a5c:    9803        ..      LDR      r0,[sp,#0xc]
        0x00001a5e:    b004        ..      ADD      sp,sp,#0x10
        0x00001a60:    bd80        ..      POP      {r7,pc}
        0x00001a62:    46c0        .F      MOV      r8,r8
    $d.27
    __arm_cp.13_0
        0x00001a64:    e000e014    ....    DCD    3758153748
    __arm_cp.13_1
        0x00001a68:    e000e018    ....    DCD    3758153752
    __arm_cp.13_2
        0x00001a6c:    e000e010    ....    DCD    3758153744
    $t.14
    SysTick_Handler
        0x00001a70:    b580        ..      PUSH     {r7,lr}
        0x00001a72:    b084        ..      SUB      sp,sp,#0x10
        0x00001a74:    483e        >H      LDR      r0,[pc,#248] ; [0x1b70] = 0x20000008
        0x00001a76:    6801        .h      LDR      r1,[r0,#0]
        0x00001a78:    1c4a        J.      ADDS     r2,r1,#1
        0x00001a7a:    6002        .`      STR      r2,[r0,#0]
        0x00001a7c:    2900        .)      CMP      r1,#0
        0x00001a7e:    9103        ..      STR      r1,[sp,#0xc]
        0x00001a80:    d010        ..      BEQ      0x1aa4 ; SysTick_Handler + 52
        0x00001a82:    e7ff        ..      B        0x1a84 ; SysTick_Handler + 20
        0x00001a84:    9803        ..      LDR      r0,[sp,#0xc]
        0x00001a86:    28c8        .(      CMP      r0,#0xc8
        0x00001a88:    d00f        ..      BEQ      0x1aaa ; SysTick_Handler + 58
        0x00001a8a:    e7ff        ..      B        0x1a8c ; SysTick_Handler + 28
        0x00001a8c:    f240102c    @.,.    MOVW     r0,#0x12c
        0x00001a90:    9903        ..      LDR      r1,[sp,#0xc]
        0x00001a92:    4281        .B      CMP      r1,r0
        0x00001a94:    d00c        ..      BEQ      0x1ab0 ; SysTick_Handler + 64
        0x00001a96:    e7ff        ..      B        0x1a98 ; SysTick_Handler + 40
        0x00001a98:    f24010f4    @...    MOVW     r0,#0x1f4
        0x00001a9c:    9903        ..      LDR      r1,[sp,#0xc]
        0x00001a9e:    4281        .B      CMP      r1,r0
        0x00001aa0:    d02f        /.      BEQ      0x1b02 ; SysTick_Handler + 146
        0x00001aa2:    e057        W.      B        0x1b54 ; SysTick_Handler + 228
        0x00001aa4:    f7fffa3e    ..>.    BL       LED_On ; 0xf24
        0x00001aa8:    e05f        _.      B        0x1b6a ; SysTick_Handler + 250
        0x00001aaa:    f7fffa2b    ..+.    BL       LED_Off ; 0xf04
        0x00001aae:    e05c        \.      B        0x1b6a ; SysTick_Handler + 250
        0x00001ab0:    4831        1H      LDR      r0,[pc,#196] ; [0x1b78] = 0x200002e8
        0x00001ab2:    6800        .h      LDR      r0,[r0,#0]
        0x00001ab4:    2800        .(      CMP      r0,#0
        0x00001ab6:    d023        #.      BEQ      0x1b00 ; SysTick_Handler + 144
        0x00001ab8:    e7ff        ..      B        0x1aba ; SysTick_Handler + 74
        0x00001aba:    482f        /H      LDR      r0,[pc,#188] ; [0x1b78] = 0x200002e8
        0x00001abc:    6800        .h      LDR      r0,[r0,#0]
        0x00001abe:    2101        .!      MOVS     r1,#1
        0x00001ac0:    9002        ..      STR      r0,[sp,#8]
        0x00001ac2:    4608        .F      MOV      r0,r1
        0x00001ac4:    9902        ..      LDR      r1,[sp,#8]
        0x00001ac6:    b4f0        ..      PUSH     {r4-r7}
        0x00001ac8:    465f        _F      MOV      r7,r11
        0x00001aca:    4656        VF      MOV      r6,r10
        0x00001acc:    464d        MF      MOV      r5,r9
        0x00001ace:    4644        DF      MOV      r4,r8
        0x00001ad0:    b4f0        ..      PUSH     {r4-r7}
        0x00001ad2:    2201        ."      MOVS     r2,#1
        0x00001ad4:    4391        .C      BICS     r1,r1,r2
        0x00001ad6:    460a        .F      MOV      r2,r1
        0x00001ad8:    460b        .F      MOV      r3,r1
        0x00001ada:    460c        .F      MOV      r4,r1
        0x00001adc:    460d        .F      MOV      r5,r1
        0x00001ade:    460e        .F      MOV      r6,r1
        0x00001ae0:    460f        .F      MOV      r7,r1
        0x00001ae2:    4688        .F      MOV      r8,r1
        0x00001ae4:    4689        .F      MOV      r9,r1
        0x00001ae6:    468a        .F      MOV      r10,r1
        0x00001ae8:    468b        .F      MOV      r11,r1
        0x00001aea:    468c        .F      MOV      r12,r1
        0x00001aec:    f3818800    ....    MSR      APSR_nzcvq,r1 ; formerly CPSR_f
        0x00001af0:    478c        .G      BLXNS    r1
        0x00001af2:    bcf0        ..      POP      {r4-r7}
        0x00001af4:    46a0        .F      MOV      r8,r4
        0x00001af6:    46a9        .F      MOV      r9,r5
        0x00001af8:    46b2        .F      MOV      r10,r6
        0x00001afa:    46bb        .F      MOV      r11,r7
        0x00001afc:    bcf0        ..      POP      {r4-r7}
        0x00001afe:    e7ff        ..      B        0x1b00 ; SysTick_Handler + 144
        0x00001b00:    e033        3.      B        0x1b6a ; SysTick_Handler + 250
        0x00001b02:    481c        .H      LDR      r0,[pc,#112] ; [0x1b74] = 0x200002e4
        0x00001b04:    6800        .h      LDR      r0,[r0,#0]
        0x00001b06:    2800        .(      CMP      r0,#0
        0x00001b08:    d023        #.      BEQ      0x1b52 ; SysTick_Handler + 226
        0x00001b0a:    e7ff        ..      B        0x1b0c ; SysTick_Handler + 156
        0x00001b0c:    4819        .H      LDR      r0,[pc,#100] ; [0x1b74] = 0x200002e4
        0x00001b0e:    6800        .h      LDR      r0,[r0,#0]
        0x00001b10:    2101        .!      MOVS     r1,#1
        0x00001b12:    9001        ..      STR      r0,[sp,#4]
        0x00001b14:    4608        .F      MOV      r0,r1
        0x00001b16:    9901        ..      LDR      r1,[sp,#4]
        0x00001b18:    b4f0        ..      PUSH     {r4-r7}
        0x00001b1a:    465f        _F      MOV      r7,r11
        0x00001b1c:    4656        VF      MOV      r6,r10
        0x00001b1e:    464d        MF      MOV      r5,r9
        0x00001b20:    4644        DF      MOV      r4,r8
        0x00001b22:    b4f0        ..      PUSH     {r4-r7}
        0x00001b24:    2201        ."      MOVS     r2,#1
        0x00001b26:    4391        .C      BICS     r1,r1,r2
        0x00001b28:    460a        .F      MOV      r2,r1
        0x00001b2a:    460b        .F      MOV      r3,r1
        0x00001b2c:    460c        .F      MOV      r4,r1
        0x00001b2e:    460d        .F      MOV      r5,r1
        0x00001b30:    460e        .F      MOV      r6,r1
        0x00001b32:    460f        .F      MOV      r7,r1
        0x00001b34:    4688        .F      MOV      r8,r1
        0x00001b36:    4689        .F      MOV      r9,r1
        0x00001b38:    468a        .F      MOV      r10,r1
        0x00001b3a:    468b        .F      MOV      r11,r1
        0x00001b3c:    468c        .F      MOV      r12,r1
        0x00001b3e:    f3818800    ....    MSR      APSR_nzcvq,r1 ; formerly CPSR_f
        0x00001b42:    478c        .G      BLXNS    r1
        0x00001b44:    bcf0        ..      POP      {r4-r7}
        0x00001b46:    46a0        .F      MOV      r8,r4
        0x00001b48:    46a9        .F      MOV      r9,r5
        0x00001b4a:    46b2        .F      MOV      r10,r6
        0x00001b4c:    46bb        .F      MOV      r11,r7
        0x00001b4e:    bcf0        ..      POP      {r4-r7}
        0x00001b50:    e7ff        ..      B        0x1b52 ; SysTick_Handler + 226
        0x00001b52:    e00a        ..      B        0x1b6a ; SysTick_Handler + 250
        0x00001b54:    4806        .H      LDR      r0,[pc,#24] ; [0x1b70] = 0x20000008
        0x00001b56:    6800        .h      LDR      r0,[r0,#0]
        0x00001b58:    4908        .I      LDR      r1,[pc,#32] ; [0x1b7c] = 0x259
        0x00001b5a:    4288        .B      CMP      r0,r1
        0x00001b5c:    d304        ..      BCC      0x1b68 ; SysTick_Handler + 248
        0x00001b5e:    e7ff        ..      B        0x1b60 ; SysTick_Handler + 240
        0x00001b60:    4803        .H      LDR      r0,[pc,#12] ; [0x1b70] = 0x20000008
        0x00001b62:    2100        .!      MOVS     r1,#0
        0x00001b64:    6001        .`      STR      r1,[r0,#0]
        0x00001b66:    e7ff        ..      B        0x1b68 ; SysTick_Handler + 248
        0x00001b68:    e7ff        ..      B        0x1b6a ; SysTick_Handler + 250
        0x00001b6a:    b004        ..      ADD      sp,sp,#0x10
        0x00001b6c:    bd80        ..      POP      {r7,pc}
        0x00001b6e:    46c0        .F      MOV      r8,r8
    $d.15
    __arm_cp.7_0
        0x00001b70:    20000008    ...     DCD    536870920
    __arm_cp.7_1
        0x00001b74:    200002e4    ...     DCD    536871652
    __arm_cp.7_2
        0x00001b78:    200002e8    ...     DCD    536871656
    __arm_cp.7_3
        0x00001b7c:    00000259    Y...    DCD    601
    $t.14
    SystemCoreClockUpdate
        0x00001b80:    b580        ..      PUSH     {r7,lr}
        0x00001b82:    f001f8c1    ....    BL       CLK_GetPLLClockFreq ; 0x2d08
        0x00001b86:    4907        .I      LDR      r1,[pc,#28] ; [0x1ba4] = 0x20000004
        0x00001b88:    6008        .`      STR      r0,[r1,#0]
        0x00001b8a:    f001f89d    ....    BL       CLK_GetCPUFreq ; 0x2cc8
        0x00001b8e:    498b        .I      LDR      r1,[pc,#556] ; [0x1dbc] = 0x2000000c
        0x00001b90:    6008        .`      STR      r0,[r1,#0]
        0x00001b92:    6808        .h      LDR      r0,[r1,#0]
        0x00001b94:    4904        .I      LDR      r1,[pc,#16] ; [0x1ba8] = 0x7a120
        0x00001b96:    1840        @.      ADDS     r0,r0,r1
        0x00001b98:    4904        .I      LDR      r1,[pc,#16] ; [0x1bac] = 0xf4240
        0x00001b9a:    fbb0f0f1    ....    UDIV     r0,r0,r1
        0x00001b9e:    4904        .I      LDR      r1,[pc,#16] ; [0x1bb0] = 0x20000000
        0x00001ba0:    6008        .`      STR      r0,[r1,#0]
        0x00001ba2:    bd80        ..      POP      {r7,pc}
    $d.15
    __arm_cp.7_0
        0x00001ba4:    20000004    ...     DCD    536870916
    __arm_cp.7_2
        0x00001ba8:    0007a120     ...    DCD    500000
    __arm_cp.7_3
        0x00001bac:    000f4240    @B..    DCD    1000000
    __arm_cp.7_4
        0x00001bb0:    20000000    ...     DCD    536870912
    $t.16
    SystemInit
        0x00001bb4:    b580        ..      PUSH     {r7,lr}
        0x00001bb6:    4805        .H      LDR      r0,[pc,#20] ; [0x1bcc] = 0
        0x00001bb8:    4905        .I      LDR      r1,[pc,#20] ; [0x1bd0] = 0xe000ed08
        0x00001bba:    6008        .`      STR      r0,[r1,#0]
        0x00001bbc:    f000f80a    ....    BL       TZ_SAU_Setup ; 0x1bd4
        0x00001bc0:    f7fffda8    ....    BL       SCU_Setup ; 0x1714
        0x00001bc4:    f7fff918    ....    BL       FMC_NSBA_Setup ; 0xdf8
        0x00001bc8:    bd80        ..      POP      {r7,pc}
        0x00001bca:    46c0        .F      MOV      r8,r8
    $d.17
    __arm_cp.8_0
        0x00001bcc:    00000000    ....    DCD    0
    __arm_cp.8_1
        0x00001bd0:    e000ed08    ....    DCD    3758157064
    $t.12
    TZ_SAU_Setup
        0x00001bd4:    b510        ..      PUSH     {r4,lr}
        0x00001bd6:    4818        .H      LDR      r0,[pc,#96] ; [0x1c38] = 0xe000edd8
        0x00001bd8:    2103        .!      MOVS     r1,#3
        0x00001bda:    6001        .`      STR      r1,[r0,#0]
        0x00001bdc:    213f        ?!      MOVS     r1,#0x3f
        0x00001bde:    0309        ..      LSLS     r1,r1,#12
        0x00001be0:    4a16        .J      LDR      r2,[pc,#88] ; [0x1c3c] = 0xe000eddc
        0x00001be2:    6011        .`      STR      r1,[r2,#0]
        0x00001be4:    4916        .I      LDR      r1,[pc,#88] ; [0x1c40] = 0xe000ede0
        0x00001be6:    4b17        .K      LDR      r3,[pc,#92] ; [0x1c44] = 0x3f7e3
        0x00001be8:    600b        .`      STR      r3,[r1,#0]
        0x00001bea:    2304        .#      MOVS     r3,#4
        0x00001bec:    6003        .`      STR      r3,[r0,#0]
        0x00001bee:    4b75        uK      LDR      r3,[pc,#468] ; [0x1dc4] = 0x10040000
        0x00001bf0:    6013        .`      STR      r3,[r2,#0]
        0x00001bf2:    4b15        .K      LDR      r3,[pc,#84] ; [0x1c48] = 0x1007ffe1
        0x00001bf4:    600b        .`      STR      r3,[r1,#0]
        0x00001bf6:    2305        .#      MOVS     r3,#5
        0x00001bf8:    6003        .`      STR      r3,[r0,#0]
        0x00001bfa:    4c14        .L      LDR      r4,[pc,#80] ; [0x1c4c] = 0x807e00
        0x00001bfc:    6014        .`      STR      r4,[r2,#0]
        0x00001bfe:    4c14        .L      LDR      r4,[pc,#80] ; [0x1c50] = 0x807fe3
        0x00001c00:    600c        .`      STR      r4,[r1,#0]
        0x00001c02:    2406        .$      MOVS     r4,#6
        0x00001c04:    6004        .`      STR      r4,[r0,#0]
        0x00001c06:    4c13        .L      LDR      r4,[pc,#76] ; [0x1c54] = 0x30008000
        0x00001c08:    6014        .`      STR      r4,[r2,#0]
        0x00001c0a:    4c13        .L      LDR      r4,[pc,#76] ; [0x1c58] = 0x30017fe1
        0x00001c0c:    600c        .`      STR      r4,[r1,#0]
        0x00001c0e:    2407        .$      MOVS     r4,#7
        0x00001c10:    6004        .`      STR      r4,[r0,#0]
        0x00001c12:    0718        ..      LSLS     r0,r3,#28
        0x00001c14:    6010        .`      STR      r0,[r2,#0]
        0x00001c16:    4811        .H      LDR      r0,[pc,#68] ; [0x1c5c] = 0x5fffffe1
        0x00001c18:    6008        .`      STR      r0,[r1,#0]
        0x00001c1a:    4811        .H      LDR      r0,[pc,#68] ; [0x1c60] = 0xe000edd0
        0x00001c1c:    2101        .!      MOVS     r1,#1
        0x00001c1e:    6001        .`      STR      r1,[r0,#0]
        0x00001c20:    4810        .H      LDR      r0,[pc,#64] ; [0x1c64] = 0xe000ed10
        0x00001c22:    6801        .h      LDR      r1,[r0,#0]
        0x00001c24:    2208        ."      MOVS     r2,#8
        0x00001c26:    4391        .C      BICS     r1,r1,r2
        0x00001c28:    6001        .`      STR      r1,[r0,#0]
        0x00001c2a:    480f        .H      LDR      r0,[pc,#60] ; [0x1c68] = 0xe000ed0c
        0x00001c2c:    490f        .I      LDR      r1,[pc,#60] ; [0x1c6c] = 0x5fa0000
        0x00001c2e:    6001        .`      STR      r1,[r0,#0]
        0x00001c30:    f7fff98e    ....    BL       NSC_Init ; 0xf50
        0x00001c34:    bd10        ..      POP      {r4,pc}
        0x00001c36:    46c0        .F      MOV      r8,r8
    $d.13
    __arm_cp.6_0
        0x00001c38:    e000edd8    ....    DCD    3758157272
    __arm_cp.6_1
        0x00001c3c:    e000eddc    ....    DCD    3758157276
    __arm_cp.6_2
        0x00001c40:    e000ede0    ....    DCD    3758157280
    __arm_cp.6_3
        0x00001c44:    0003f7e3    ....    DCD    260067
    __arm_cp.6_5
        0x00001c48:    1007ffe1    ....    DCD    268959713
    __arm_cp.6_6
        0x00001c4c:    00807e00    .~..    DCD    8420864
    __arm_cp.6_7
        0x00001c50:    00807fe3    ....    DCD    8421347
    __arm_cp.6_8
        0x00001c54:    30008000    ...0    DCD    805339136
    __arm_cp.6_9
        0x00001c58:    30017fe1    ...0    DCD    805404641
    __arm_cp.6_10
        0x00001c5c:    5fffffe1    ..._    DCD    1610612705
    __arm_cp.6_11
        0x00001c60:    e000edd0    ....    DCD    3758157264
    __arm_cp.6_12
        0x00001c64:    e000ed10    ....    DCD    3758157072
    __arm_cp.6_13
        0x00001c68:    e000ed0c    ....    DCD    3758157068
    __arm_cp.6_14
        0x00001c6c:    05fa0000    ....    DCD    100270080
    $t.6
    __NVIC_EnableIRQ
        0x00001c70:    b081        ..      SUB      sp,sp,#4
        0x00001c72:    9000        ..      STR      r0,[sp,#0]
        0x00001c74:    9800        ..      LDR      r0,[sp,#0]
        0x00001c76:    2800        .(      CMP      r0,#0
        0x00001c78:    d40b        ..      BMI      0x1c92 ; __NVIC_EnableIRQ + 34
        0x00001c7a:    e7ff        ..      B        0x1c7c ; __NVIC_EnableIRQ + 12
        0x00001c7c:    9800        ..      LDR      r0,[sp,#0]
        0x00001c7e:    211f        .!      MOVS     r1,#0x1f
        0x00001c80:    4602        .F      MOV      r2,r0
        0x00001c82:    400a        .@      ANDS     r2,r2,r1
        0x00001c84:    2101        .!      MOVS     r1,#1
        0x00001c86:    4091        .@      LSLS     r1,r1,r2
        0x00001c88:    0940        @.      LSRS     r0,r0,#5
        0x00001c8a:    0080        ..      LSLS     r0,r0,#2
        0x00001c8c:    4a02        .J      LDR      r2,[pc,#8] ; [0x1c98] = 0xe000e100
        0x00001c8e:    5081        .P      STR      r1,[r0,r2]
        0x00001c90:    e7ff        ..      B        0x1c92 ; __NVIC_EnableIRQ + 34
        0x00001c92:    b001        ..      ADD      sp,sp,#4
        0x00001c94:    4770        pG      BX       lr
        0x00001c96:    46c0        .F      MOV      r8,r8
    $d.7
    __arm_cp.3_0
        0x00001c98:    e000e100    ....    DCD    3758153984
    $t.28
    __NVIC_SetPriority
        0x00001c9c:    b570        p.      PUSH     {r4-r6,lr}
        0x00001c9e:    b082        ..      SUB      sp,sp,#8
        0x00001ca0:    9001        ..      STR      r0,[sp,#4]
        0x00001ca2:    9100        ..      STR      r1,[sp,#0]
        0x00001ca4:    9801        ..      LDR      r0,[sp,#4]
        0x00001ca6:    2800        .(      CMP      r0,#0
        0x00001ca8:    d414        ..      BMI      0x1cd4 ; __NVIC_SetPriority + 56
        0x00001caa:    e7ff        ..      B        0x1cac ; __NVIC_SetPriority + 16
        0x00001cac:    9801        ..      LDR      r0,[sp,#4]
        0x00001cae:    2103        .!      MOVS     r1,#3
        0x00001cb0:    43c9        .C      MVNS     r1,r1
        0x00001cb2:    4008        .@      ANDS     r0,r0,r1
        0x00001cb4:    4a16        .J      LDR      r2,[pc,#88] ; [0x1d10] = 0xe000e400
        0x00001cb6:    5880        .X      LDR      r0,[r0,r2]
        0x00001cb8:    9b01        ..      LDR      r3,[sp,#4]
        0x00001cba:    079c        ..      LSLS     r4,r3,#30
        0x00001cbc:    0ee4        ..      LSRS     r4,r4,#27
        0x00001cbe:    25ff        .%      MOVS     r5,#0xff
        0x00001cc0:    40a5        .@      LSLS     r5,r5,r4
        0x00001cc2:    43a8        .C      BICS     r0,r0,r5
        0x00001cc4:    9d00        ..      LDR      r5,[sp,#0]
        0x00001cc6:    01ad        ..      LSLS     r5,r5,#6
        0x00001cc8:    b2ed        ..      UXTB     r5,r5
        0x00001cca:    40a5        .@      LSLS     r5,r5,r4
        0x00001ccc:    4328        (C      ORRS     r0,r0,r5
        0x00001cce:    400b        .@      ANDS     r3,r3,r1
        0x00001cd0:    5098        .P      STR      r0,[r3,r2]
        0x00001cd2:    e018        ..      B        0x1d06 ; __NVIC_SetPriority + 106
        0x00001cd4:    9801        ..      LDR      r0,[sp,#4]
        0x00001cd6:    210f        .!      MOVS     r1,#0xf
        0x00001cd8:    4008        .@      ANDS     r0,r0,r1
        0x00001cda:    3808        .8      SUBS     r0,r0,#8
        0x00001cdc:    2203        ."      MOVS     r2,#3
        0x00001cde:    43d2        .C      MVNS     r2,r2
        0x00001ce0:    4010        .@      ANDS     r0,r0,r2
        0x00001ce2:    4b0a        .K      LDR      r3,[pc,#40] ; [0x1d0c] = 0xe000ed1c
        0x00001ce4:    58c0        .X      LDR      r0,[r0,r3]
        0x00001ce6:    9c01        ..      LDR      r4,[sp,#4]
        0x00001ce8:    07a5        ..      LSLS     r5,r4,#30
        0x00001cea:    0eed        ..      LSRS     r5,r5,#27
        0x00001cec:    26ff        .&      MOVS     r6,#0xff
        0x00001cee:    40ae        .@      LSLS     r6,r6,r5
        0x00001cf0:    43b0        .C      BICS     r0,r0,r6
        0x00001cf2:    9e00        ..      LDR      r6,[sp,#0]
        0x00001cf4:    01b6        ..      LSLS     r6,r6,#6
        0x00001cf6:    b2f6        ..      UXTB     r6,r6
        0x00001cf8:    40ae        .@      LSLS     r6,r6,r5
        0x00001cfa:    4330        0C      ORRS     r0,r0,r6
        0x00001cfc:    400c        .@      ANDS     r4,r4,r1
        0x00001cfe:    3c08        .<      SUBS     r4,r4,#8
        0x00001d00:    4014        .@      ANDS     r4,r4,r2
        0x00001d02:    50e0        .P      STR      r0,[r4,r3]
        0x00001d04:    e7ff        ..      B        0x1d06 ; __NVIC_SetPriority + 106
        0x00001d06:    b002        ..      ADD      sp,sp,#8
        0x00001d08:    bd70        p.      POP      {r4-r6,pc}
        0x00001d0a:    46c0        .F      MOV      r8,r8
    $d.29
    __arm_cp.14_0
        0x00001d0c:    e000ed1c    ....    DCD    3758157084
    __arm_cp.14_1
        0x00001d10:    e000e400    ....    DCD    3758154752
    $t.15
    fputc
        0x00001d14:    b580        ..      PUSH     {r7,lr}
        0x00001d16:    b082        ..      SUB      sp,sp,#8
        0x00001d18:    9001        ..      STR      r0,[sp,#4]
        0x00001d1a:    9100        ..      STR      r1,[sp,#0]
        0x00001d1c:    9801        ..      LDR      r0,[sp,#4]
        0x00001d1e:    f7fffe51    ..Q.    BL       SendChar ; 0x19c4
        0x00001d22:    9801        ..      LDR      r0,[sp,#4]
        0x00001d24:    b002        ..      ADD      sp,sp,#8
        0x00001d26:    bd80        ..      POP      {r7,pc}
    main
        0x00001d28:    b580        ..      PUSH     {r7,lr}
        0x00001d2a:    b088        ..      SUB      sp,sp,#0x20
        0x00001d2c:    2000        .       MOVS     r0,#0
        0x00001d2e:    9007        ..      STR      r0,[sp,#0x1c]
        0x00001d30:    9006        ..      STR      r0,[sp,#0x18]
        0x00001d32:    f7fffdc3    ....    BL       SYS_UnlockReg ; 0x18bc
        0x00001d36:    f7fffd4b    ..K.    BL       SYS_Init ; 0x17d0
        0x00001d3a:    f7fff84f    ..O.    BL       DEBUG_PORT_Init ; 0xddc
        0x00001d3e:    481c        .H      LDR      r0,[pc,#112] ; [0x1db0] = 0x285a
        0x00001d40:    f000f842    ..B.    BL       __0printf ; 0x1dc8
        0x00001d44:    491b        .I      LDR      r1,[pc,#108] ; [0x1db4] = 0x40004000
        0x00001d46:    f6404200    @..B    MOVW     r2,#0xc00
        0x00001d4a:    2301        .#      MOVS     r3,#1
        0x00001d4c:    9005        ..      STR      r0,[sp,#0x14]
        0x00001d4e:    4608        .F      MOV      r0,r1
        0x00001d50:    4611        .F      MOV      r1,r2
        0x00001d52:    461a        .F      MOV      r2,r3
        0x00001d54:    9304        ..      STR      r3,[sp,#0x10]
        0x00001d56:    f7fff8af    ....    BL       GPIO_SetMode ; 0xeb8
        0x00001d5a:    4817        .H      LDR      r0,[pc,#92] ; [0x1db8] = 0x40004040
        0x00001d5c:    2103        .!      MOVS     r1,#3
        0x00001d5e:    9a04        ..      LDR      r2,[sp,#0x10]
        0x00001d60:    f7fff8aa    ....    BL       GPIO_SetMode ; 0xeb8
        0x00001d64:    4815        .H      LDR      r0,[pc,#84] ; [0x1dbc] = 0x2000000c
        0x00001d66:    6800        .h      LDR      r0,[r0,#0]
        0x00001d68:    2164        d!      MOVS     r1,#0x64
        0x00001d6a:    fbb0f0f1    ....    UDIV     r0,r0,r1
        0x00001d6e:    f7fffe55    ..U.    BL       SysTick_Config ; 0x1a1c
        0x00001d72:    4913        .I      LDR      r1,[pc,#76] ; [0x1dc0] = 0x4002f020
        0x00001d74:    680a        .h      LDR      r2,[r1,#0]
        0x00001d76:    2304        .#      MOVS     r3,#4
        0x00001d78:    431a        .C      ORRS     r2,r2,r3
        0x00001d7a:    600a        .`      STR      r2,[r1,#0]
        0x00001d7c:    9904        ..      LDR      r1,[sp,#0x10]
        0x00001d7e:    9003        ..      STR      r0,[sp,#0xc]
        0x00001d80:    4608        .F      MOV      r0,r1
        0x00001d82:    f007f93d    ..=.    BL       XOM1_Func ; 0x9000
        0x00001d86:    9906        ..      LDR      r1,[sp,#0x18]
        0x00001d88:    9002        ..      STR      r0,[sp,#8]
        0x00001d8a:    4608        .F      MOV      r0,r1
        0x00001d8c:    f006f938    ..8.    BL       XOM0_Func ; 0x8000
        0x00001d90:    490c        .I      LDR      r1,[pc,#48] ; [0x1dc4] = 0x10040000
        0x00001d92:    9001        ..      STR      r0,[sp,#4]
        0x00001d94:    4608        .F      MOV      r0,r1
        0x00001d96:    f7fefd55    ..U.    BL       Boot_Init ; 0x844
        0x00001d9a:    e7ff        ..      B        0x1d9c ; main + 116
        0x00001d9c:    bf30        0.      WFI      
        0x00001d9e:    e7ff        ..      B        0x1da0 ; main + 120
        0x00001da0:    2001        .       MOVS     r0,#1
        0x00001da2:    2800        .(      CMP      r0,#0
        0x00001da4:    d1fa        ..      BNE      0x1d9c ; main + 116
        0x00001da6:    e7ff        ..      B        0x1da8 ; main + 128
        0x00001da8:    9807        ..      LDR      r0,[sp,#0x1c]
        0x00001daa:    b008        ..      ADD      sp,sp,#0x20
        0x00001dac:    bd80        ..      POP      {r7,pc}
        0x00001dae:    46c0        .F      MOV      r8,r8
    $d.19
    __arm_cp.9_0
        0x00001db0:    0000285a    Z(..    DCD    10330
    __arm_cp.9_1
        0x00001db4:    40004000    .@.@    DCD    1073758208
    __arm_cp.9_2
        0x00001db8:    40004040    @@.@    DCD    1073758272
    __arm_cp.9_3
        0x00001dbc:    2000000c    ...     DCD    536870924
    __arm_cp.9_4
        0x00001dc0:    4002f020     ..@    DCD    1073934368
    __arm_cp.9_5
        0x00001dc4:    10040000    ....    DCD    268697600
    $t
    i.__0printf
    __0printf
    __1printf
    __2printf
    __c89printf
    printf
        0x00001dc8:    b40f        ..      PUSH     {r0-r3}
        0x00001dca:    b510        ..      PUSH     {r4,lr}
        0x00001dcc:    a903        ..      ADD      r1,sp,#0xc
        0x00001dce:    4b04        .K      LDR      r3,[pc,#16] ; [0x1de0] = 0x1d15
        0x00001dd0:    4a04        .J      LDR      r2,[pc,#16] ; [0x1de4] = 0x20000290
        0x00001dd2:    9802        ..      LDR      r0,[sp,#8]
        0x00001dd4:    f000f8e8    ....    BL       _printf_core ; 0x1fa8
        0x00001dd8:    bc10        ..      POP      {r4}
        0x00001dda:    bc08        ..      POP      {r3}
        0x00001ddc:    b004        ..      ADD      sp,sp,#0x10
        0x00001dde:    4718        .G      BX       r3
    $d
        0x00001de0:    00001d15    ....    DCD    7445
        0x00001de4:    20000290    ...     DCD    536871568
    $t
    i.__ARM_clz
    __ARM_clz
        0x00001de8:    2120         !      MOVS     r1,#0x20
        0x00001dea:    0c02        ..      LSRS     r2,r0,#16
        0x00001dec:    d001        ..      BEQ      0x1df2 ; __ARM_clz + 10
        0x00001dee:    2110        .!      MOVS     r1,#0x10
        0x00001df0:    4610        .F      MOV      r0,r2
        0x00001df2:    0a02        ..      LSRS     r2,r0,#8
        0x00001df4:    d001        ..      BEQ      0x1dfa ; __ARM_clz + 18
        0x00001df6:    4610        .F      MOV      r0,r2
        0x00001df8:    3908        .9      SUBS     r1,r1,#8
        0x00001dfa:    0902        ..      LSRS     r2,r0,#4
        0x00001dfc:    d001        ..      BEQ      0x1e02 ; __ARM_clz + 26
        0x00001dfe:    4610        .F      MOV      r0,r2
        0x00001e00:    1f09        ..      SUBS     r1,r1,#4
        0x00001e02:    0882        ..      LSRS     r2,r0,#2
        0x00001e04:    d001        ..      BEQ      0x1e0a ; __ARM_clz + 34
        0x00001e06:    4610        .F      MOV      r0,r2
        0x00001e08:    1e89        ..      SUBS     r1,r1,#2
        0x00001e0a:    0842        B.      LSRS     r2,r0,#1
        0x00001e0c:    d001        ..      BEQ      0x1e12 ; __ARM_clz + 42
        0x00001e0e:    1e88        ..      SUBS     r0,r1,#2
        0x00001e10:    4770        pG      BX       lr
        0x00001e12:    1a08        ..      SUBS     r0,r1,r0
        0x00001e14:    4770        pG      BX       lr
    i.__scatterload_copy
    __scatterload_copy
        0x00001e16:    e002        ..      B        0x1e1e ; __scatterload_copy + 8
        0x00001e18:    c808        ..      LDM      r0!,{r3}
        0x00001e1a:    1f12        ..      SUBS     r2,r2,#4
        0x00001e1c:    c108        ..      STM      r1!,{r3}
        0x00001e1e:    2a00        .*      CMP      r2,#0
        0x00001e20:    d1fa        ..      BNE      0x1e18 ; __scatterload_copy + 2
        0x00001e22:    4770        pG      BX       lr
    i.__scatterload_null
    __scatterload_null
        0x00001e24:    4770        pG      BX       lr
    i.__scatterload_zeroinit
    __scatterload_zeroinit
        0x00001e26:    2000        .       MOVS     r0,#0
        0x00001e28:    e001        ..      B        0x1e2e ; __scatterload_zeroinit + 8
        0x00001e2a:    c101        ..      STM      r1!,{r0}
        0x00001e2c:    1f12        ..      SUBS     r2,r2,#4
        0x00001e2e:    2a00        .*      CMP      r2,#0
        0x00001e30:    d1fb        ..      BNE      0x1e2a ; __scatterload_zeroinit + 4
        0x00001e32:    4770        pG      BX       lr
    i._fp_digits
    _fp_digits
        0x00001e34:    b5f0        ..      PUSH     {r4-r7,lr}
        0x00001e36:    b41f        ..      PUSH     {r0-r4}
        0x00001e38:    b086        ..      SUB      sp,sp,#0x18
        0x00001e3a:    9809        ..      LDR      r0,[sp,#0x24]
        0x00001e3c:    9a08        ..      LDR      r2,[sp,#0x20]
        0x00001e3e:    0d03        ..      LSRS     r3,r0,#20
        0x00001e40:    2100        .!      MOVS     r1,#0
        0x00001e42:    4302        .C      ORRS     r2,r2,r0
        0x00001e44:    d014        ..      BEQ      0x1e70 ; _fp_digits + 60
        0x00001e46:    4851        QH      LDR      r0,[pc,#324] ; [0x1f8c] = 0xfffffc01
        0x00001e48:    4a51        QJ      LDR      r2,[pc,#324] ; [0x1f90] = 0x4d10
        0x00001e4a:    1818        ..      ADDS     r0,r3,r0
        0x00001e4c:    4350        PC      MULS     r0,r2,r0
        0x00001e4e:    1405        ..      ASRS     r5,r0,#16
        0x00001e50:    9811        ..      LDR      r0,[sp,#0x44]
        0x00001e52:    2801        .(      CMP      r0,#1
        0x00001e54:    9810        ..      LDR      r0,[sp,#0x40]
        0x00001e56:    d01a        ..      BEQ      0x1e8e ; _fp_digits + 90
        0x00001e58:    1a28        (.      SUBS     r0,r5,r0
        0x00001e5a:    1c40        @.      ADDS     r0,r0,#1
        0x00001e5c:    2600        .&      MOVS     r6,#0
        0x00001e5e:    4f4d        MO      LDR      r7,[pc,#308] ; [0x1f94] = 0x40140000
        0x00001e60:    494d        MI      LDR      r1,[pc,#308] ; [0x1f98] = 0x3ff00000
        0x00001e62:    9600        ..      STR      r6,[sp,#0]
        0x00001e64:    9101        ..      STR      r1,[sp,#4]
        0x00001e66:    9004        ..      STR      r0,[sp,#0x10]
        0x00001e68:    2800        .(      CMP      r0,#0
        0x00001e6a:    da12        ..      BGE      0x1e92 ; _fp_digits + 94
        0x00001e6c:    4244        DB      RSBS     r4,r0,#0
        0x00001e6e:    e011        ..      B        0x1e94 ; _fp_digits + 96
        0x00001e70:    9811        ..      LDR      r0,[sp,#0x44]
        0x00001e72:    2401        .$      MOVS     r4,#1
        0x00001e74:    a349        I.      ADR      r3,{pc}+0x128 ; 0x1f9c
        0x00001e76:    2801        .(      CMP      r0,#1
        0x00001e78:    d101        ..      BNE      0x1e7e ; _fp_digits + 74
        0x00001e7a:    9810        ..      LDR      r0,[sp,#0x40]
        0x00001e7c:    43c1        .C      MVNS     r1,r0
        0x00001e7e:    9806        ..      LDR      r0,[sp,#0x18]
        0x00001e80:    9a11        ..      LDR      r2,[sp,#0x44]
        0x00001e82:    6084        .`      STR      r4,[r0,#8]
        0x00001e84:    6003        .`      STR      r3,[r0,#0]
        0x00001e86:    60c2        .`      STR      r2,[r0,#0xc]
        0x00001e88:    6041        A`      STR      r1,[r0,#4]
        0x00001e8a:    b00b        ..      ADD      sp,sp,#0x2c
        0x00001e8c:    bdf0        ..      POP      {r4-r7,pc}
        0x00001e8e:    4240        @B      RSBS     r0,r0,#0
        0x00001e90:    e7e4        ..      B        0x1e5c ; _fp_digits + 40
        0x00001e92:    4604        .F      MOV      r4,r0
        0x00001e94:    0521        !.      LSLS     r1,r4,#20
        0x00001e96:    2000        .       MOVS     r0,#0
        0x00001e98:    4a3f        ?J      LDR      r2,[pc,#252] ; [0x1f98] = 0x3ff00000
        0x00001e9a:    1c00        ..      ADDS     r0,r0,#0
        0x00001e9c:    4151        QA      ADCS     r1,r1,r2
        0x00001e9e:    9103        ..      STR      r1,[sp,#0xc]
        0x00001ea0:    9002        ..      STR      r0,[sp,#8]
        0x00001ea2:    e012        ..      B        0x1eca ; _fp_digits + 150
        0x00001ea4:    07e0        ..      LSLS     r0,r4,#31
        0x00001ea6:    d007        ..      BEQ      0x1eb8 ; _fp_digits + 132
        0x00001ea8:    4632        2F      MOV      r2,r6
        0x00001eaa:    463b        ;F      MOV      r3,r7
        0x00001eac:    9901        ..      LDR      r1,[sp,#4]
        0x00001eae:    9800        ..      LDR      r0,[sp,#0]
        0x00001eb0:    f7fefac4    ....    BL       __aeabi_dmul ; 0x43c
        0x00001eb4:    9101        ..      STR      r1,[sp,#4]
        0x00001eb6:    9000        ..      STR      r0,[sp,#0]
        0x00001eb8:    4632        2F      MOV      r2,r6
        0x00001eba:    463b        ;F      MOV      r3,r7
        0x00001ebc:    4610        .F      MOV      r0,r2
        0x00001ebe:    4619        .F      MOV      r1,r3
        0x00001ec0:    f7fefabc    ....    BL       __aeabi_dmul ; 0x43c
        0x00001ec4:    4606        .F      MOV      r6,r0
        0x00001ec6:    460f        .F      MOV      r7,r1
        0x00001ec8:    1064        d.      ASRS     r4,r4,#1
        0x00001eca:    2c00        .,      CMP      r4,#0
        0x00001ecc:    d1ea        ..      BNE      0x1ea4 ; _fp_digits + 112
        0x00001ece:    9804        ..      LDR      r0,[sp,#0x10]
        0x00001ed0:    9b03        ..      LDR      r3,[sp,#0xc]
        0x00001ed2:    2800        .(      CMP      r0,#0
        0x00001ed4:    9a02        ..      LDR      r2,[sp,#8]
        0x00001ed6:    9909        ..      LDR      r1,[sp,#0x24]
        0x00001ed8:    9808        ..      LDR      r0,[sp,#0x20]
        0x00001eda:    da06        ..      BGE      0x1eea ; _fp_digits + 182
        0x00001edc:    f7fefaae    ....    BL       __aeabi_dmul ; 0x43c
        0x00001ee0:    9b01        ..      LDR      r3,[sp,#4]
        0x00001ee2:    9a00        ..      LDR      r2,[sp,#0]
        0x00001ee4:    f7fefaaa    ....    BL       __aeabi_dmul ; 0x43c
        0x00001ee8:    e005        ..      B        0x1ef6 ; _fp_digits + 194
        0x00001eea:    f7fefb0f    ....    BL       __aeabi_ddiv ; 0x50c
        0x00001eee:    9b01        ..      LDR      r3,[sp,#4]
        0x00001ef0:    9a00        ..      LDR      r2,[sp,#0]
        0x00001ef2:    f7fefb0b    ....    BL       __aeabi_ddiv ; 0x50c
        0x00001ef6:    4604        .F      MOV      r4,r0
        0x00001ef8:    460e        .F      MOV      r6,r1
        0x00001efa:    2200        ."      MOVS     r2,#0
        0x00001efc:    4b28        (K      LDR      r3,[pc,#160] ; [0x1fa0] = 0x43f00000
        0x00001efe:    f7fefb9d    ....    BL       __aeabi_cdrcmple ; 0x63c
        0x00001f02:    d803        ..      BHI      0x1f0c ; _fp_digits + 216
        0x00001f04:    2000        .       MOVS     r0,#0
        0x00001f06:    43c0        .C      MVNS     r0,r0
        0x00001f08:    4601        .F      MOV      r1,r0
        0x00001f0a:    e007        ..      B        0x1f1c ; _fp_digits + 232
        0x00001f0c:    2200        ."      MOVS     r2,#0
        0x00001f0e:    4b25        %K      LDR      r3,[pc,#148] ; [0x1fa4] = 0x3fe00000
        0x00001f10:    4620         F      MOV      r0,r4
        0x00001f12:    4631        1F      MOV      r1,r6
        0x00001f14:    f7fef9e0    ....    BL       __I$use$fp ; 0x2d8
        0x00001f18:    f7fefb70    ..p.    BL       __aeabi_d2ulz ; 0x5fc
        0x00001f1c:    2410        .$      MOVS     r4,#0x10
        0x00001f1e:    e009        ..      B        0x1f34 ; _fp_digits + 256
        0x00001f20:    2c00        .,      CMP      r4,#0
        0x00001f22:    db0a        ..      BLT      0x1f3a ; _fp_digits + 262
        0x00001f24:    220a        ."      MOVS     r2,#0xa
        0x00001f26:    2300        .#      MOVS     r3,#0
        0x00001f28:    f7fef9a6    ....    BL       __aeabi_uldivmod ; 0x278
        0x00001f2c:    9b07        ..      LDR      r3,[sp,#0x1c]
        0x00001f2e:    3230        02      ADDS     r2,r2,#0x30
        0x00001f30:    551a        .U      STRB     r2,[r3,r4]
        0x00001f32:    1e64        d.      SUBS     r4,r4,#1
        0x00001f34:    4602        .F      MOV      r2,r0
        0x00001f36:    430a        .C      ORRS     r2,r2,r1
        0x00001f38:    d1f2        ..      BNE      0x1f20 ; _fp_digits + 236
        0x00001f3a:    2211        ."      MOVS     r2,#0x11
        0x00001f3c:    1c64        d.      ADDS     r4,r4,#1
        0x00001f3e:    9b07        ..      LDR      r3,[sp,#0x1c]
        0x00001f40:    1b12        ..      SUBS     r2,r2,r4
        0x00001f42:    191c        ..      ADDS     r4,r3,r4
        0x00001f44:    9b11        ..      LDR      r3,[sp,#0x44]
        0x00001f46:    2b01        .+      CMP      r3,#1
        0x00001f48:    d003        ..      BEQ      0x1f52 ; _fp_digits + 286
        0x00001f4a:    2301        .#      MOVS     r3,#1
        0x00001f4c:    4308        .C      ORRS     r0,r0,r1
        0x00001f4e:    d10e        ..      BNE      0x1f6e ; _fp_digits + 314
        0x00001f50:    e00a        ..      B        0x1f68 ; _fp_digits + 308
        0x00001f52:    4308        .C      ORRS     r0,r0,r1
        0x00001f54:    d004        ..      BEQ      0x1f60 ; _fp_digits + 300
        0x00001f56:    2011        .       MOVS     r0,#0x11
        0x00001f58:    9010        ..      STR      r0,[sp,#0x40]
        0x00001f5a:    2000        .       MOVS     r0,#0
        0x00001f5c:    9011        ..      STR      r0,[sp,#0x44]
        0x00001f5e:    e777        w.      B        0x1e50 ; _fp_digits + 28
        0x00001f60:    9810        ..      LDR      r0,[sp,#0x40]
        0x00001f62:    1a15        ..      SUBS     r5,r2,r0
        0x00001f64:    1e6d        m.      SUBS     r5,r5,#1
        0x00001f66:    e00b        ..      B        0x1f80 ; _fp_digits + 332
        0x00001f68:    9810        ..      LDR      r0,[sp,#0x40]
        0x00001f6a:    4282        .B      CMP      r2,r0
        0x00001f6c:    dd02        ..      BLE      0x1f74 ; _fp_digits + 320
        0x00001f6e:    2300        .#      MOVS     r3,#0
        0x00001f70:    1c6d        m.      ADDS     r5,r5,#1
        0x00001f72:    e003        ..      B        0x1f7c ; _fp_digits + 328
        0x00001f74:    4282        .B      CMP      r2,r0
        0x00001f76:    da01        ..      BGE      0x1f7c ; _fp_digits + 328
        0x00001f78:    2300        .#      MOVS     r3,#0
        0x00001f7a:    1e6d        m.      SUBS     r5,r5,#1
        0x00001f7c:    2b00        .+      CMP      r3,#0
        0x00001f7e:    d0ee        ..      BEQ      0x1f5e ; _fp_digits + 298
        0x00001f80:    9806        ..      LDR      r0,[sp,#0x18]
        0x00001f82:    9911        ..      LDR      r1,[sp,#0x44]
        0x00001f84:    6082        .`      STR      r2,[r0,#8]
        0x00001f86:    60c1        .`      STR      r1,[r0,#0xc]
        0x00001f88:    c030        0.      STM      r0!,{r4,r5}
        0x00001f8a:    e77e        ~.      B        0x1e8a ; _fp_digits + 86
    $d
        0x00001f8c:    fffffc01    ....    DCD    4294966273
        0x00001f90:    00004d10    .M..    DCD    19728
        0x00001f94:    40140000    ...@    DCD    1075052544
        0x00001f98:    3ff00000    ...?    DCD    1072693248
        0x00001f9c:    00000030    0...    DCD    48
        0x00001fa0:    43f00000    ...C    DCD    1139802112
        0x00001fa4:    3fe00000    ...?    DCD    1071644672
    $t
    i._printf_core
    _printf_core
        0x00001fa8:    b5ff        ..      PUSH     {r0-r7,lr}
        0x00001faa:    b097        ..      SUB      sp,sp,#0x5c
        0x00001fac:    4606        .F      MOV      r6,r0
        0x00001fae:    2500        .%      MOVS     r5,#0
        0x00001fb0:    e218        ..      B        0x23e4 ; _printf_core + 1084
        0x00001fb2:    2825        %(      CMP      r0,#0x25
        0x00001fb4:    d177        w.      BNE      0x20a6 ; _printf_core + 254
        0x00001fb6:    2400        .$      MOVS     r4,#0
        0x00001fb8:    4627        'F      MOV      r7,r4
        0x00001fba:    49fd        .I      LDR      r1,[pc,#1012] ; [0x23b0] = 0x12809
        0x00001fbc:    9404        ..      STR      r4,[sp,#0x10]
        0x00001fbe:    e000        ..      B        0x1fc2 ; _printf_core + 26
        0x00001fc0:    4304        .C      ORRS     r4,r4,r0
        0x00001fc2:    1c76        v.      ADDS     r6,r6,#1
        0x00001fc4:    7832        2x      LDRB     r2,[r6,#0]
        0x00001fc6:    2001        .       MOVS     r0,#1
        0x00001fc8:    3a20         :      SUBS     r2,r2,#0x20
        0x00001fca:    4090        .@      LSLS     r0,r0,r2
        0x00001fcc:    4208        .B      TST      r0,r1
        0x00001fce:    d1f7        ..      BNE      0x1fc0 ; _printf_core + 24
        0x00001fd0:    7830        0x      LDRB     r0,[r6,#0]
        0x00001fd2:    282a        *(      CMP      r0,#0x2a
        0x00001fd4:    d00e        ..      BEQ      0x1ff4 ; _printf_core + 76
        0x00001fd6:    2202        ."      MOVS     r2,#2
        0x00001fd8:    7830        0x      LDRB     r0,[r6,#0]
        0x00001fda:    4601        .F      MOV      r1,r0
        0x00001fdc:    3930        09      SUBS     r1,r1,#0x30
        0x00001fde:    2909        .)      CMP      r1,#9
        0x00001fe0:    d816        ..      BHI      0x2010 ; _printf_core + 104
        0x00001fe2:    9904        ..      LDR      r1,[sp,#0x10]
        0x00001fe4:    230a        .#      MOVS     r3,#0xa
        0x00001fe6:    4359        YC      MULS     r1,r3,r1
        0x00001fe8:    3930        09      SUBS     r1,r1,#0x30
        0x00001fea:    1840        @.      ADDS     r0,r0,r1
        0x00001fec:    4314        .C      ORRS     r4,r4,r2
        0x00001fee:    1c76        v.      ADDS     r6,r6,#1
        0x00001ff0:    9004        ..      STR      r0,[sp,#0x10]
        0x00001ff2:    e7f1        ..      B        0x1fd8 ; _printf_core + 48
        0x00001ff4:    9818        ..      LDR      r0,[sp,#0x60]
        0x00001ff6:    c802        ..      LDM      r0!,{r1}
        0x00001ff8:    9104        ..      STR      r1,[sp,#0x10]
        0x00001ffa:    9018        ..      STR      r0,[sp,#0x60]
        0x00001ffc:    2900        .)      CMP      r1,#0
        0x00001ffe:    da04        ..      BGE      0x200a ; _printf_core + 98
        0x00002000:    2001        .       MOVS     r0,#1
        0x00002002:    0340        @.      LSLS     r0,r0,#13
        0x00002004:    4304        .C      ORRS     r4,r4,r0
        0x00002006:    4248        HB      RSBS     r0,r1,#0
        0x00002008:    9004        ..      STR      r0,[sp,#0x10]
        0x0000200a:    2002        .       MOVS     r0,#2
        0x0000200c:    4304        .C      ORRS     r4,r4,r0
        0x0000200e:    1c76        v.      ADDS     r6,r6,#1
        0x00002010:    7830        0x      LDRB     r0,[r6,#0]
        0x00002012:    282e        .(      CMP      r0,#0x2e
        0x00002014:    d114        ..      BNE      0x2040 ; _printf_core + 152
        0x00002016:    2004        .       MOVS     r0,#4
        0x00002018:    4304        .C      ORRS     r4,r4,r0
        0x0000201a:    7870        px      LDRB     r0,[r6,#1]
        0x0000201c:    1c76        v.      ADDS     r6,r6,#1
        0x0000201e:    282a        *(      CMP      r0,#0x2a
        0x00002020:    d109        ..      BNE      0x2036 ; _printf_core + 142
        0x00002022:    9818        ..      LDR      r0,[sp,#0x60]
        0x00002024:    1c76        v.      ADDS     r6,r6,#1
        0x00002026:    c880        ..      LDM      r0!,{r7}
        0x00002028:    9018        ..      STR      r0,[sp,#0x60]
        0x0000202a:    e009        ..      B        0x2040 ; _printf_core + 152
        0x0000202c:    210a        .!      MOVS     r1,#0xa
        0x0000202e:    434f        OC      MULS     r7,r1,r7
        0x00002030:    3f30        0?      SUBS     r7,r7,#0x30
        0x00002032:    19c7        ..      ADDS     r7,r0,r7
        0x00002034:    1c76        v.      ADDS     r6,r6,#1
        0x00002036:    7830        0x      LDRB     r0,[r6,#0]
        0x00002038:    4601        .F      MOV      r1,r0
        0x0000203a:    3930        09      SUBS     r1,r1,#0x30
        0x0000203c:    2909        .)      CMP      r1,#9
        0x0000203e:    d9f5        ..      BLS      0x202c ; _printf_core + 132
        0x00002040:    7830        0x      LDRB     r0,[r6,#0]
        0x00002042:    286c        l(      CMP      r0,#0x6c
        0x00002044:    d010        ..      BEQ      0x2068 ; _printf_core + 192
        0x00002046:    dc06        ..      BGT      0x2056 ; _printf_core + 174
        0x00002048:    284c        L(      CMP      r0,#0x4c
        0x0000204a:    d01a        ..      BEQ      0x2082 ; _printf_core + 218
        0x0000204c:    2868        h(      CMP      r0,#0x68
        0x0000204e:    d00e        ..      BEQ      0x206e ; _printf_core + 198
        0x00002050:    286a        j(      CMP      r0,#0x6a
        0x00002052:    d117        ..      BNE      0x2084 ; _printf_core + 220
        0x00002054:    e004        ..      B        0x2060 ; _printf_core + 184
        0x00002056:    2874        t(      CMP      r0,#0x74
        0x00002058:    d013        ..      BEQ      0x2082 ; _printf_core + 218
        0x0000205a:    287a        z(      CMP      r0,#0x7a
        0x0000205c:    d112        ..      BNE      0x2084 ; _printf_core + 220
        0x0000205e:    e010        ..      B        0x2082 ; _printf_core + 218
        0x00002060:    2001        .       MOVS     r0,#1
        0x00002062:    0540        @.      LSLS     r0,r0,#21
        0x00002064:    4304        .C      ORRS     r4,r4,r0
        0x00002066:    e00c        ..      B        0x2082 ; _printf_core + 218
        0x00002068:    2101        .!      MOVS     r1,#1
        0x0000206a:    0509        ..      LSLS     r1,r1,#20
        0x0000206c:    e001        ..      B        0x2072 ; _printf_core + 202
        0x0000206e:    2103        .!      MOVS     r1,#3
        0x00002070:    0509        ..      LSLS     r1,r1,#20
        0x00002072:    430c        .C      ORRS     r4,r4,r1
        0x00002074:    7871        qx      LDRB     r1,[r6,#1]
        0x00002076:    4281        .B      CMP      r1,r0
        0x00002078:    d103        ..      BNE      0x2082 ; _printf_core + 218
        0x0000207a:    2001        .       MOVS     r0,#1
        0x0000207c:    0500        ..      LSLS     r0,r0,#20
        0x0000207e:    1824        $.      ADDS     r4,r4,r0
        0x00002080:    1c76        v.      ADDS     r6,r6,#1
        0x00002082:    1c76        v.      ADDS     r6,r6,#1
        0x00002084:    7830        0x      LDRB     r0,[r6,#0]
        0x00002086:    9011        ..      STR      r0,[sp,#0x44]
        0x00002088:    2866        f(      CMP      r0,#0x66
        0x0000208a:    d00b        ..      BEQ      0x20a4 ; _printf_core + 252
        0x0000208c:    dc13        ..      BGT      0x20b6 ; _printf_core + 270
        0x0000208e:    2858        X(      CMP      r0,#0x58
        0x00002090:    d07d        }.      BEQ      0x218e ; _printf_core + 486
        0x00002092:    dc09        ..      BGT      0x20a8 ; _printf_core + 256
        0x00002094:    2800        .(      CMP      r0,#0
        0x00002096:    d07b        {.      BEQ      0x2190 ; _printf_core + 488
        0x00002098:    2845        E(      CMP      r0,#0x45
        0x0000209a:    d0f6        ..      BEQ      0x208a ; _printf_core + 226
        0x0000209c:    2846        F(      CMP      r0,#0x46
        0x0000209e:    d0f4        ..      BEQ      0x208a ; _printf_core + 226
        0x000020a0:    2847        G(      CMP      r0,#0x47
        0x000020a2:    d11a        ..      BNE      0x20da ; _printf_core + 306
        0x000020a4:    e1a5        ..      B        0x23f2 ; _printf_core + 1098
        0x000020a6:    e018        ..      B        0x20da ; _printf_core + 306
        0x000020a8:    2863        c(      CMP      r0,#0x63
        0x000020aa:    d035        5.      BEQ      0x2118 ; _printf_core + 368
        0x000020ac:    2864        d(      CMP      r0,#0x64
        0x000020ae:    d070        p.      BEQ      0x2192 ; _printf_core + 490
        0x000020b0:    2865        e(      CMP      r0,#0x65
        0x000020b2:    d112        ..      BNE      0x20da ; _printf_core + 306
        0x000020b4:    e19d        ..      B        0x23f2 ; _printf_core + 1098
        0x000020b6:    2870        p(      CMP      r0,#0x70
        0x000020b8:    d06c        l.      BEQ      0x2194 ; _printf_core + 492
        0x000020ba:    dc08        ..      BGT      0x20ce ; _printf_core + 294
        0x000020bc:    2867        g(      CMP      r0,#0x67
        0x000020be:    d0f1        ..      BEQ      0x20a4 ; _printf_core + 252
        0x000020c0:    2869        i(      CMP      r0,#0x69
        0x000020c2:    d07b        {.      BEQ      0x21bc ; _printf_core + 532
        0x000020c4:    286e        n(      CMP      r0,#0x6e
        0x000020c6:    d00d        ..      BEQ      0x20e4 ; _printf_core + 316
        0x000020c8:    286f        o(      CMP      r0,#0x6f
        0x000020ca:    d106        ..      BNE      0x20da ; _printf_core + 306
        0x000020cc:    e0ba        ..      B        0x2244 ; _printf_core + 668
        0x000020ce:    2873        s(      CMP      r0,#0x73
        0x000020d0:    d02e        ..      BEQ      0x2130 ; _printf_core + 392
        0x000020d2:    2875        u(      CMP      r0,#0x75
        0x000020d4:    d071        q.      BEQ      0x21ba ; _printf_core + 530
        0x000020d6:    2878        x(      CMP      r0,#0x78
        0x000020d8:    d059        Y.      BEQ      0x218e ; _printf_core + 486
        0x000020da:    9a1a        ..      LDR      r2,[sp,#0x68]
        0x000020dc:    9919        ..      LDR      r1,[sp,#0x64]
        0x000020de:    4790        .G      BLX      r2
        0x000020e0:    1c6d        m.      ADDS     r5,r5,#1
        0x000020e2:    e17e        ~.      B        0x23e2 ; _printf_core + 1082
        0x000020e4:    0260        `.      LSLS     r0,r4,#9
        0x000020e6:    0f40        @.      LSRS     r0,r0,#29
        0x000020e8:    2802        .(      CMP      r0,#2
        0x000020ea:    d009        ..      BEQ      0x2100 ; _printf_core + 344
        0x000020ec:    2803        .(      CMP      r0,#3
        0x000020ee:    d00d        ..      BEQ      0x210c ; _printf_core + 356
        0x000020f0:    2804        .(      CMP      r0,#4
        0x000020f2:    9818        ..      LDR      r0,[sp,#0x60]
        0x000020f4:    6801        .h      LDR      r1,[r0,#0]
        0x000020f6:    d00d        ..      BEQ      0x2114 ; _printf_core + 364
        0x000020f8:    600d        .`      STR      r5,[r1,#0]
        0x000020fa:    1d00        ..      ADDS     r0,r0,#4
        0x000020fc:    9018        ..      STR      r0,[sp,#0x60]
        0x000020fe:    e170        p.      B        0x23e2 ; _printf_core + 1082
        0x00002100:    9818        ..      LDR      r0,[sp,#0x60]
        0x00002102:    17ea        ..      ASRS     r2,r5,#31
        0x00002104:    6801        .h      LDR      r1,[r0,#0]
        0x00002106:    600d        .`      STR      r5,[r1,#0]
        0x00002108:    604a        J`      STR      r2,[r1,#4]
        0x0000210a:    e7f6        ..      B        0x20fa ; _printf_core + 338
        0x0000210c:    9818        ..      LDR      r0,[sp,#0x60]
        0x0000210e:    6801        .h      LDR      r1,[r0,#0]
        0x00002110:    800d        ..      STRH     r5,[r1,#0]
        0x00002112:    e7f2        ..      B        0x20fa ; _printf_core + 338
        0x00002114:    700d        .p      STRB     r5,[r1,#0]
        0x00002116:    e7f0        ..      B        0x20fa ; _printf_core + 338
        0x00002118:    9818        ..      LDR      r0,[sp,#0x60]
        0x0000211a:    466a        jF      MOV      r2,sp
        0x0000211c:    7801        .x      LDRB     r1,[r0,#0]
        0x0000211e:    7211        .r      STRB     r1,[r2,#8]
        0x00002120:    1d00        ..      ADDS     r0,r0,#4
        0x00002122:    9018        ..      STR      r0,[sp,#0x60]
        0x00002124:    2000        .       MOVS     r0,#0
        0x00002126:    7250        Pr      STRB     r0,[r2,#9]
        0x00002128:    a802        ..      ADD      r0,sp,#8
        0x0000212a:    9000        ..      STR      r0,[sp,#0]
        0x0000212c:    2001        .       MOVS     r0,#1
        0x0000212e:    e005        ..      B        0x213c ; _printf_core + 404
        0x00002130:    9818        ..      LDR      r0,[sp,#0x60]
        0x00002132:    c802        ..      LDM      r0!,{r1}
        0x00002134:    9018        ..      STR      r0,[sp,#0x60]
        0x00002136:    2000        .       MOVS     r0,#0
        0x00002138:    9100        ..      STR      r1,[sp,#0]
        0x0000213a:    43c0        .C      MVNS     r0,r0
        0x0000213c:    0761        a.      LSLS     r1,r4,#29
        0x0000213e:    d50d        ..      BPL      0x215c ; _printf_core + 436
        0x00002140:    2100        .!      MOVS     r1,#0
        0x00002142:    e001        ..      B        0x2148 ; _printf_core + 416
        0x00002144:    9901        ..      LDR      r1,[sp,#4]
        0x00002146:    1c49        I.      ADDS     r1,r1,#1
        0x00002148:    9101        ..      STR      r1,[sp,#4]
        0x0000214a:    42b9        .B      CMP      r1,r7
        0x0000214c:    da12        ..      BGE      0x2174 ; _printf_core + 460
        0x0000214e:    4281        .B      CMP      r1,r0
        0x00002150:    dbf8        ..      BLT      0x2144 ; _printf_core + 412
        0x00002152:    9a00        ..      LDR      r2,[sp,#0]
        0x00002154:    5c51        Q\      LDRB     r1,[r2,r1]
        0x00002156:    2900        .)      CMP      r1,#0
        0x00002158:    d1f4        ..      BNE      0x2144 ; _printf_core + 412
        0x0000215a:    e00b        ..      B        0x2174 ; _printf_core + 460
        0x0000215c:    2100        .!      MOVS     r1,#0
        0x0000215e:    e001        ..      B        0x2164 ; _printf_core + 444
        0x00002160:    9901        ..      LDR      r1,[sp,#4]
        0x00002162:    1c49        I.      ADDS     r1,r1,#1
        0x00002164:    9101        ..      STR      r1,[sp,#4]
        0x00002166:    4281        .B      CMP      r1,r0
        0x00002168:    dbfa        ..      BLT      0x2160 ; _printf_core + 440
        0x0000216a:    9a01        ..      LDR      r2,[sp,#4]
        0x0000216c:    9900        ..      LDR      r1,[sp,#0]
        0x0000216e:    5c89        .\      LDRB     r1,[r1,r2]
        0x00002170:    2900        .)      CMP      r1,#0
        0x00002172:    d1f5        ..      BNE      0x2160 ; _printf_core + 440
        0x00002174:    9901        ..      LDR      r1,[sp,#4]
        0x00002176:    9804        ..      LDR      r0,[sp,#0x10]
        0x00002178:    9b1a        ..      LDR      r3,[sp,#0x68]
        0x0000217a:    1a47        G.      SUBS     r7,r0,r1
        0x0000217c:    4621        !F      MOV      r1,r4
        0x0000217e:    4638        8F      MOV      r0,r7
        0x00002180:    9a19        ..      LDR      r2,[sp,#0x64]
        0x00002182:    f000fa97    ....    BL       _printf_pre_padding ; 0x26b4
        0x00002186:    9901        ..      LDR      r1,[sp,#4]
        0x00002188:    1940        @.      ADDS     r0,r0,r5
        0x0000218a:    1845        E.      ADDS     r5,r0,r1
        0x0000218c:    e00b        ..      B        0x21a6 ; _printf_core + 510
        0x0000218e:    e04f        O.      B        0x2230 ; _printf_core + 648
        0x00002190:    e12c        ,.      B        0x23ec ; _printf_core + 1092
        0x00002192:    e013        ..      B        0x21bc ; _printf_core + 532
        0x00002194:    e04e        N.      B        0x2234 ; _printf_core + 652
        0x00002196:    9800        ..      LDR      r0,[sp,#0]
        0x00002198:    9900        ..      LDR      r1,[sp,#0]
        0x0000219a:    7800        .x      LDRB     r0,[r0,#0]
        0x0000219c:    1c49        I.      ADDS     r1,r1,#1
        0x0000219e:    9100        ..      STR      r1,[sp,#0]
        0x000021a0:    9a1a        ..      LDR      r2,[sp,#0x68]
        0x000021a2:    9919        ..      LDR      r1,[sp,#0x64]
        0x000021a4:    4790        .G      BLX      r2
        0x000021a6:    9801        ..      LDR      r0,[sp,#4]
        0x000021a8:    1e40        @.      SUBS     r0,r0,#1
        0x000021aa:    9001        ..      STR      r0,[sp,#4]
        0x000021ac:    1c40        @.      ADDS     r0,r0,#1
        0x000021ae:    d1f2        ..      BNE      0x2196 ; _printf_core + 494
        0x000021b0:    4621        !F      MOV      r1,r4
        0x000021b2:    4638        8F      MOV      r0,r7
        0x000021b4:    9b1a        ..      LDR      r3,[sp,#0x68]
        0x000021b6:    9a19        ..      LDR      r2,[sp,#0x64]
        0x000021b8:    e110        ..      B        0x23dc ; _printf_core + 1076
        0x000021ba:    e037        7.      B        0x222c ; _printf_core + 644
        0x000021bc:    200a        .       MOVS     r0,#0xa
        0x000021be:    2100        .!      MOVS     r1,#0
        0x000021c0:    9000        ..      STR      r0,[sp,#0]
        0x000021c2:    9101        ..      STR      r1,[sp,#4]
        0x000021c4:    0260        `.      LSLS     r0,r4,#9
        0x000021c6:    0f41        A.      LSRS     r1,r0,#29
        0x000021c8:    2902        .)      CMP      r1,#2
        0x000021ca:    d007        ..      BEQ      0x21dc ; _printf_core + 564
        0x000021cc:    9a18        ..      LDR      r2,[sp,#0x60]
        0x000021ce:    ca01        ..      LDM      r2!,{r0}
        0x000021d0:    9218        ..      STR      r2,[sp,#0x60]
        0x000021d2:    17c2        ..      ASRS     r2,r0,#31
        0x000021d4:    4694        .F      MOV      r12,r2
        0x000021d6:    2903        .)      CMP      r1,#3
        0x000021d8:    d008        ..      BEQ      0x21ec ; _printf_core + 580
        0x000021da:    e00a        ..      B        0x21f2 ; _printf_core + 586
        0x000021dc:    9818        ..      LDR      r0,[sp,#0x60]
        0x000021de:    1dc0        ..      ADDS     r0,r0,#7
        0x000021e0:    08c1        ..      LSRS     r1,r0,#3
        0x000021e2:    00c9        ..      LSLS     r1,r1,#3
        0x000021e4:    c905        ..      LDM      r1!,{r0,r2}
        0x000021e6:    9118        ..      STR      r1,[sp,#0x60]
        0x000021e8:    4694        .F      MOV      r12,r2
        0x000021ea:    e007        ..      B        0x21fc ; _printf_core + 596
        0x000021ec:    b200        ..      SXTH     r0,r0
        0x000021ee:    17c2        ..      ASRS     r2,r0,#31
        0x000021f0:    4694        .F      MOV      r12,r2
        0x000021f2:    2904        .)      CMP      r1,#4
        0x000021f4:    d102        ..      BNE      0x21fc ; _printf_core + 596
        0x000021f6:    b240        @.      SXTB     r0,r0
        0x000021f8:    17c1        ..      ASRS     r1,r0,#31
        0x000021fa:    468c        .F      MOV      r12,r1
        0x000021fc:    2200        ."      MOVS     r2,#0
        0x000021fe:    4661        aF      MOV      r1,r12
        0x00002200:    4594        .E      CMP      r12,r2
        0x00002202:    da06        ..      BGE      0x2212 ; _printf_core + 618
        0x00002204:    460a        .F      MOV      r2,r1
        0x00002206:    2100        .!      MOVS     r1,#0
        0x00002208:    4240        @B      RSBS     r0,r0,#0
        0x0000220a:    4191        .A      SBCS     r1,r1,r2
        0x0000220c:    468c        .F      MOV      r12,r1
        0x0000220e:    212d        -!      MOVS     r1,#0x2d
        0x00002210:    e002        ..      B        0x2218 ; _printf_core + 624
        0x00002212:    0521        !.      LSLS     r1,r4,#20
        0x00002214:    d504        ..      BPL      0x2220 ; _printf_core + 632
        0x00002216:    212b        +!      MOVS     r1,#0x2b
        0x00002218:    466a        jF      MOV      r2,sp
        0x0000221a:    7311        .s      STRB     r1,[r2,#0xc]
        0x0000221c:    2101        .!      MOVS     r1,#1
        0x0000221e:    e003        ..      B        0x2228 ; _printf_core + 640
        0x00002220:    07e1        ..      LSLS     r1,r4,#31
        0x00002222:    d001        ..      BEQ      0x2228 ; _printf_core + 640
        0x00002224:    2120         !      MOVS     r1,#0x20
        0x00002226:    e7f7        ..      B        0x2218 ; _printf_core + 624
        0x00002228:    9102        ..      STR      r1,[sp,#8]
        0x0000222a:    e055        U.      B        0x22d8 ; _printf_core + 816
        0x0000222c:    200a        .       MOVS     r0,#0xa
        0x0000222e:    e00a        ..      B        0x2246 ; _printf_core + 670
        0x00002230:    2010        .       MOVS     r0,#0x10
        0x00002232:    e008        ..      B        0x2246 ; _printf_core + 670
        0x00002234:    2010        .       MOVS     r0,#0x10
        0x00002236:    9000        ..      STR      r0,[sp,#0]
        0x00002238:    2100        .!      MOVS     r1,#0
        0x0000223a:    2004        .       MOVS     r0,#4
        0x0000223c:    4304        .C      ORRS     r4,r4,r0
        0x0000223e:    9101        ..      STR      r1,[sp,#4]
        0x00002240:    2708        .'      MOVS     r7,#8
        0x00002242:    e003        ..      B        0x224c ; _printf_core + 676
        0x00002244:    2008        .       MOVS     r0,#8
        0x00002246:    2100        .!      MOVS     r1,#0
        0x00002248:    9101        ..      STR      r1,[sp,#4]
        0x0000224a:    9000        ..      STR      r0,[sp,#0]
        0x0000224c:    0260        `.      LSLS     r0,r4,#9
        0x0000224e:    0f41        A.      LSRS     r1,r0,#29
        0x00002250:    2902        .)      CMP      r1,#2
        0x00002252:    d007        ..      BEQ      0x2264 ; _printf_core + 700
        0x00002254:    9a18        ..      LDR      r2,[sp,#0x60]
        0x00002256:    ca01        ..      LDM      r2!,{r0}
        0x00002258:    9218        ..      STR      r2,[sp,#0x60]
        0x0000225a:    2200        ."      MOVS     r2,#0
        0x0000225c:    4694        .F      MOV      r12,r2
        0x0000225e:    2903        .)      CMP      r1,#3
        0x00002260:    d008        ..      BEQ      0x2274 ; _printf_core + 716
        0x00002262:    e008        ..      B        0x2276 ; _printf_core + 718
        0x00002264:    9818        ..      LDR      r0,[sp,#0x60]
        0x00002266:    1dc0        ..      ADDS     r0,r0,#7
        0x00002268:    08c1        ..      LSRS     r1,r0,#3
        0x0000226a:    00c9        ..      LSLS     r1,r1,#3
        0x0000226c:    c905        ..      LDM      r1!,{r0,r2}
        0x0000226e:    9118        ..      STR      r1,[sp,#0x60]
        0x00002270:    4694        .F      MOV      r12,r2
        0x00002272:    e003        ..      B        0x227c ; _printf_core + 724
        0x00002274:    b280        ..      UXTH     r0,r0
        0x00002276:    2904        .)      CMP      r1,#4
        0x00002278:    d100        ..      BNE      0x227c ; _printf_core + 724
        0x0000227a:    b2c0        ..      UXTB     r0,r0
        0x0000227c:    2100        .!      MOVS     r1,#0
        0x0000227e:    9102        ..      STR      r1,[sp,#8]
        0x00002280:    0721        !.      LSLS     r1,r4,#28
        0x00002282:    d529        ).      BPL      0x22d8 ; _printf_core + 816
        0x00002284:    9911        ..      LDR      r1,[sp,#0x44]
        0x00002286:    2970        p)      CMP      r1,#0x70
        0x00002288:    d006        ..      BEQ      0x2298 ; _printf_core + 752
        0x0000228a:    9a00        ..      LDR      r2,[sp,#0]
        0x0000228c:    2110        .!      MOVS     r1,#0x10
        0x0000228e:    9b01        ..      LDR      r3,[sp,#4]
        0x00002290:    404a        J@      EORS     r2,r2,r1
        0x00002292:    431a        .C      ORRS     r2,r2,r3
        0x00002294:    d005        ..      BEQ      0x22a2 ; _printf_core + 762
        0x00002296:    e00e        ..      B        0x22b6 ; _printf_core + 782
        0x00002298:    2140        @!      MOVS     r1,#0x40
        0x0000229a:    466a        jF      MOV      r2,sp
        0x0000229c:    7311        .s      STRB     r1,[r2,#0xc]
        0x0000229e:    2101        .!      MOVS     r1,#1
        0x000022a0:    e008        ..      B        0x22b4 ; _printf_core + 780
        0x000022a2:    4661        aF      MOV      r1,r12
        0x000022a4:    4301        .C      ORRS     r1,r1,r0
        0x000022a6:    d006        ..      BEQ      0x22b6 ; _printf_core + 782
        0x000022a8:    2130        0!      MOVS     r1,#0x30
        0x000022aa:    466a        jF      MOV      r2,sp
        0x000022ac:    7311        .s      STRB     r1,[r2,#0xc]
        0x000022ae:    9911        ..      LDR      r1,[sp,#0x44]
        0x000022b0:    7351        Qs      STRB     r1,[r2,#0xd]
        0x000022b2:    2102        .!      MOVS     r1,#2
        0x000022b4:    9102        ..      STR      r1,[sp,#8]
        0x000022b6:    9a00        ..      LDR      r2,[sp,#0]
        0x000022b8:    2108        .!      MOVS     r1,#8
        0x000022ba:    9b01        ..      LDR      r3,[sp,#4]
        0x000022bc:    404a        J@      EORS     r2,r2,r1
        0x000022be:    431a        .C      ORRS     r2,r2,r3
        0x000022c0:    d10a        ..      BNE      0x22d8 ; _printf_core + 816
        0x000022c2:    4661        aF      MOV      r1,r12
        0x000022c4:    4301        .C      ORRS     r1,r1,r0
        0x000022c6:    d101        ..      BNE      0x22cc ; _printf_core + 804
        0x000022c8:    0761        a.      LSLS     r1,r4,#29
        0x000022ca:    d505        ..      BPL      0x22d8 ; _printf_core + 816
        0x000022cc:    2130        0!      MOVS     r1,#0x30
        0x000022ce:    466a        jF      MOV      r2,sp
        0x000022d0:    7311        .s      STRB     r1,[r2,#0xc]
        0x000022d2:    2101        .!      MOVS     r1,#1
        0x000022d4:    1e7f        ..      SUBS     r7,r7,#1
        0x000022d6:    9102        ..      STR      r1,[sp,#8]
        0x000022d8:    9911        ..      LDR      r1,[sp,#0x44]
        0x000022da:    2958        X)      CMP      r1,#0x58
        0x000022dc:    d004        ..      BEQ      0x22e8 ; _printf_core + 832
        0x000022de:    a135        5.      ADR      r1,{pc}+0xd6 ; 0x23b4
        0x000022e0:    910e        ..      STR      r1,[sp,#0x38]
        0x000022e2:    a90d        ..      ADD      r1,sp,#0x34
        0x000022e4:    910d        ..      STR      r1,[sp,#0x34]
        0x000022e6:    e00d        ..      B        0x2304 ; _printf_core + 860
        0x000022e8:    a137        7.      ADR      r1,{pc}+0xe0 ; 0x23c8
        0x000022ea:    e7f9        ..      B        0x22e0 ; _printf_core + 824
        0x000022ec:    4661        aF      MOV      r1,r12
        0x000022ee:    9b01        ..      LDR      r3,[sp,#4]
        0x000022f0:    9a00        ..      LDR      r2,[sp,#0]
        0x000022f2:    f7fdffc1    ....    BL       __aeabi_uldivmod ; 0x278
        0x000022f6:    9b0e        ..      LDR      r3,[sp,#0x38]
        0x000022f8:    468c        .F      MOV      r12,r1
        0x000022fa:    5c9b        .\      LDRB     r3,[r3,r2]
        0x000022fc:    9a0d        ..      LDR      r2,[sp,#0x34]
        0x000022fe:    1e52        R.      SUBS     r2,r2,#1
        0x00002300:    920d        ..      STR      r2,[sp,#0x34]
        0x00002302:    7013        .p      STRB     r3,[r2,#0]
        0x00002304:    4661        aF      MOV      r1,r12
        0x00002306:    4301        .C      ORRS     r1,r1,r0
        0x00002308:    d1f0        ..      BNE      0x22ec ; _printf_core + 836
        0x0000230a:    980d        ..      LDR      r0,[sp,#0x34]
        0x0000230c:    a905        ..      ADD      r1,sp,#0x14
        0x0000230e:    1a08        ..      SUBS     r0,r1,r0
        0x00002310:    3020         0      ADDS     r0,r0,#0x20
        0x00002312:    9001        ..      STR      r0,[sp,#4]
        0x00002314:    0760        `.      LSLS     r0,r4,#29
        0x00002316:    d503        ..      BPL      0x2320 ; _printf_core + 888
        0x00002318:    2001        .       MOVS     r0,#1
        0x0000231a:    0400        ..      LSLS     r0,r0,#16
        0x0000231c:    4384        .C      BICS     r4,r4,r0
        0x0000231e:    e000        ..      B        0x2322 ; _printf_core + 890
        0x00002320:    2701        .'      MOVS     r7,#1
        0x00002322:    9801        ..      LDR      r0,[sp,#4]
        0x00002324:    4287        .B      CMP      r7,r0
        0x00002326:    dd01        ..      BLE      0x232c ; _printf_core + 900
        0x00002328:    1a38        8.      SUBS     r0,r7,r0
        0x0000232a:    e000        ..      B        0x232e ; _printf_core + 902
        0x0000232c:    2000        .       MOVS     r0,#0
        0x0000232e:    9901        ..      LDR      r1,[sp,#4]
        0x00002330:    9000        ..      STR      r0,[sp,#0]
        0x00002332:    1841        A.      ADDS     r1,r0,r1
        0x00002334:    9802        ..      LDR      r0,[sp,#8]
        0x00002336:    1809        ..      ADDS     r1,r1,r0
        0x00002338:    9804        ..      LDR      r0,[sp,#0x10]
        0x0000233a:    1a40        @.      SUBS     r0,r0,r1
        0x0000233c:    9004        ..      STR      r0,[sp,#0x10]
        0x0000233e:    03e0        ..      LSLS     r0,r4,#15
        0x00002340:    d406        ..      BMI      0x2350 ; _printf_core + 936
        0x00002342:    4621        !F      MOV      r1,r4
        0x00002344:    9b1a        ..      LDR      r3,[sp,#0x68]
        0x00002346:    9a19        ..      LDR      r2,[sp,#0x64]
        0x00002348:    9804        ..      LDR      r0,[sp,#0x10]
        0x0000234a:    f000f9b3    ....    BL       _printf_pre_padding ; 0x26b4
        0x0000234e:    1945        E.      ADDS     r5,r0,r5
        0x00002350:    2700        .'      MOVS     r7,#0
        0x00002352:    e006        ..      B        0x2362 ; _printf_core + 954
        0x00002354:    a803        ..      ADD      r0,sp,#0xc
        0x00002356:    9a1a        ..      LDR      r2,[sp,#0x68]
        0x00002358:    5dc0        .]      LDRB     r0,[r0,r7]
        0x0000235a:    9919        ..      LDR      r1,[sp,#0x64]
        0x0000235c:    4790        .G      BLX      r2
        0x0000235e:    1c6d        m.      ADDS     r5,r5,#1
        0x00002360:    1c7f        ..      ADDS     r7,r7,#1
        0x00002362:    9802        ..      LDR      r0,[sp,#8]
        0x00002364:    4287        .B      CMP      r7,r0
        0x00002366:    dbf5        ..      BLT      0x2354 ; _printf_core + 940
        0x00002368:    03e0        ..      LSLS     r0,r4,#15
        0x0000236a:    d50c        ..      BPL      0x2386 ; _printf_core + 990
        0x0000236c:    4621        !F      MOV      r1,r4
        0x0000236e:    9b1a        ..      LDR      r3,[sp,#0x68]
        0x00002370:    9a19        ..      LDR      r2,[sp,#0x64]
        0x00002372:    9804        ..      LDR      r0,[sp,#0x10]
        0x00002374:    f000f99e    ....    BL       _printf_pre_padding ; 0x26b4
        0x00002378:    1945        E.      ADDS     r5,r0,r5
        0x0000237a:    e004        ..      B        0x2386 ; _printf_core + 990
        0x0000237c:    9a1a        ..      LDR      r2,[sp,#0x68]
        0x0000237e:    2030        0       MOVS     r0,#0x30
        0x00002380:    9919        ..      LDR      r1,[sp,#0x64]
        0x00002382:    4790        .G      BLX      r2
        0x00002384:    1c6d        m.      ADDS     r5,r5,#1
        0x00002386:    9900        ..      LDR      r1,[sp,#0]
        0x00002388:    1e48        H.      SUBS     r0,r1,#1
        0x0000238a:    9000        ..      STR      r0,[sp,#0]
        0x0000238c:    2900        .)      CMP      r1,#0
        0x0000238e:    dcf5        ..      BGT      0x237c ; _printf_core + 980
        0x00002390:    e008        ..      B        0x23a4 ; _printf_core + 1020
        0x00002392:    980d        ..      LDR      r0,[sp,#0x34]
        0x00002394:    990d        ..      LDR      r1,[sp,#0x34]
        0x00002396:    7800        .x      LDRB     r0,[r0,#0]
        0x00002398:    1c49        I.      ADDS     r1,r1,#1
        0x0000239a:    910d        ..      STR      r1,[sp,#0x34]
        0x0000239c:    9a1a        ..      LDR      r2,[sp,#0x68]
        0x0000239e:    9919        ..      LDR      r1,[sp,#0x64]
        0x000023a0:    4790        .G      BLX      r2
        0x000023a2:    1c6d        m.      ADDS     r5,r5,#1
        0x000023a4:    9901        ..      LDR      r1,[sp,#4]
        0x000023a6:    1e48        H.      SUBS     r0,r1,#1
        0x000023a8:    9001        ..      STR      r0,[sp,#4]
        0x000023aa:    2900        .)      CMP      r1,#0
        0x000023ac:    dcf1        ..      BGT      0x2392 ; _printf_core + 1002
        0x000023ae:    e163        c.      B        0x2678 ; _printf_core + 1744
    $d
        0x000023b0:    00012809    .(..    DCD    75785
        0x000023b4:    33323130    0123    DCD    858927408
        0x000023b8:    37363534    4567    DCD    926299444
        0x000023bc:    62613938    89ab    DCD    1650538808
        0x000023c0:    66656463    cdef    DCD    1717920867
        0x000023c4:    00000000    ....    DCD    0
        0x000023c8:    33323130    0123    DCD    858927408
        0x000023cc:    37363534    4567    DCD    926299444
        0x000023d0:    42413938    89AB    DCD    1111570744
        0x000023d4:    46454443    CDEF    DCD    1178944579
        0x000023d8:    00000000    ....    DCD    0
    $t
        0x000023dc:    f000f95a    ..Z.    BL       _printf_post_padding ; 0x2694
        0x000023e0:    1945        E.      ADDS     r5,r0,r5
        0x000023e2:    1c76        v.      ADDS     r6,r6,#1
        0x000023e4:    7830        0x      LDRB     r0,[r6,#0]
        0x000023e6:    2800        .(      CMP      r0,#0
        0x000023e8:    d000        ..      BEQ      0x23ec ; _printf_core + 1092
        0x000023ea:    e5e2        ..      B        0x1fb2 ; _printf_core + 10
        0x000023ec:    4628        (F      MOV      r0,r5
        0x000023ee:    b01b        ..      ADD      sp,sp,#0x6c
        0x000023f0:    bdf0        ..      POP      {r4-r7,pc}
        0x000023f2:    0760        `.      LSLS     r0,r4,#29
        0x000023f4:    d400        ..      BMI      0x23f8 ; _printf_core + 1104
        0x000023f6:    2706        .'      MOVS     r7,#6
        0x000023f8:    9818        ..      LDR      r0,[sp,#0x60]
        0x000023fa:    1dc0        ..      ADDS     r0,r0,#7
        0x000023fc:    08c1        ..      LSRS     r1,r0,#3
        0x000023fe:    00c9        ..      LSLS     r1,r1,#3
        0x00002400:    6848        Hh      LDR      r0,[r1,#4]
        0x00002402:    680a        .h      LDR      r2,[r1,#0]
        0x00002404:    3108        .1      ADDS     r1,r1,#8
        0x00002406:    0fc3        ..      LSRS     r3,r0,#31
        0x00002408:    07db        ..      LSLS     r3,r3,#31
        0x0000240a:    9118        ..      STR      r1,[sp,#0x60]
        0x0000240c:    0019        ..      MOVS     r1,r3
        0x0000240e:    d001        ..      BEQ      0x2414 ; _printf_core + 1132
        0x00002410:    a19c        ..      ADR      r1,{pc}+0x274 ; 0x2684
        0x00002412:    e008        ..      B        0x2426 ; _printf_core + 1150
        0x00002414:    0521        !.      LSLS     r1,r4,#20
        0x00002416:    d501        ..      BPL      0x241c ; _printf_core + 1140
        0x00002418:    a19b        ..      ADR      r1,{pc}+0x270 ; 0x2688
        0x0000241a:    e004        ..      B        0x2426 ; _printf_core + 1150
        0x0000241c:    07e1        ..      LSLS     r1,r4,#31
        0x0000241e:    d001        ..      BEQ      0x2424 ; _printf_core + 1148
        0x00002420:    a19a        ..      ADR      r1,{pc}+0x26c ; 0x268c
        0x00002422:    e000        ..      B        0x2426 ; _printf_core + 1150
        0x00002424:    a19a        ..      ADR      r1,{pc}+0x26c ; 0x2690
        0x00002426:    0043        C.      LSLS     r3,r0,#1
        0x00002428:    9811        ..      LDR      r0,[sp,#0x44]
        0x0000242a:    085b        [.      LSRS     r3,r3,#1
        0x0000242c:    9110        ..      STR      r1,[sp,#0x40]
        0x0000242e:    2865        e(      CMP      r0,#0x65
        0x00002430:    d00c        ..      BEQ      0x244c ; _printf_core + 1188
        0x00002432:    dc06        ..      BGT      0x2442 ; _printf_core + 1178
        0x00002434:    2845        E(      CMP      r0,#0x45
        0x00002436:    d009        ..      BEQ      0x244c ; _printf_core + 1188
        0x00002438:    2846        F(      CMP      r0,#0x46
        0x0000243a:    d01d        ..      BEQ      0x2478 ; _printf_core + 1232
        0x0000243c:    2847        G(      CMP      r0,#0x47
        0x0000243e:    d141        A.      BNE      0x24c4 ; _printf_core + 1308
        0x00002440:    e041        A.      B        0x24c6 ; _printf_core + 1310
        0x00002442:    2866        f(      CMP      r0,#0x66
        0x00002444:    d018        ..      BEQ      0x2478 ; _printf_core + 1232
        0x00002446:    2867        g(      CMP      r0,#0x67
        0x00002448:    d13c        <.      BNE      0x24c4 ; _printf_core + 1308
        0x0000244a:    e03c        <.      B        0x24c6 ; _printf_core + 1310
        0x0000244c:    2100        .!      MOVS     r1,#0
        0x0000244e:    2f11        ./      CMP      r7,#0x11
        0x00002450:    db01        ..      BLT      0x2456 ; _printf_core + 1198
        0x00002452:    2011        .       MOVS     r0,#0x11
        0x00002454:    e000        ..      B        0x2458 ; _printf_core + 1200
        0x00002456:    1c78        x.      ADDS     r0,r7,#1
        0x00002458:    9101        ..      STR      r1,[sp,#4]
        0x0000245a:    9000        ..      STR      r0,[sp,#0]
        0x0000245c:    a908        ..      ADD      r1,sp,#0x20
        0x0000245e:    a811        ..      ADD      r0,sp,#0x44
        0x00002460:    f7fffce8    ....    BL       _fp_digits ; 0x1e34
        0x00002464:    9913        ..      LDR      r1,[sp,#0x4c]
        0x00002466:    9105        ..      STR      r1,[sp,#0x14]
        0x00002468:    2100        .!      MOVS     r1,#0
        0x0000246a:    9a11        ..      LDR      r2,[sp,#0x44]
        0x0000246c:    9215        ..      STR      r2,[sp,#0x54]
        0x0000246e:    1c7f        ..      ADDS     r7,r7,#1
        0x00002470:    9812        ..      LDR      r0,[sp,#0x48]
        0x00002472:    9701        ..      STR      r7,[sp,#4]
        0x00002474:    9100        ..      STR      r1,[sp,#0]
        0x00002476:    e050        P.      B        0x251a ; _printf_core + 1394
        0x00002478:    2001        .       MOVS     r0,#1
        0x0000247a:    07c0        ..      LSLS     r0,r0,#31
        0x0000247c:    9003        ..      STR      r0,[sp,#0xc]
        0x0000247e:    2001        .       MOVS     r0,#1
        0x00002480:    9001        ..      STR      r0,[sp,#4]
        0x00002482:    a908        ..      ADD      r1,sp,#0x20
        0x00002484:    9700        ..      STR      r7,[sp,#0]
        0x00002486:    a811        ..      ADD      r0,sp,#0x44
        0x00002488:    f7fffcd4    ....    BL       _fp_digits ; 0x1e34
        0x0000248c:    9a13        ..      LDR      r2,[sp,#0x4c]
        0x0000248e:    9914        ..      LDR      r1,[sp,#0x50]
        0x00002490:    9205        ..      STR      r2,[sp,#0x14]
        0x00002492:    2200        ."      MOVS     r2,#0
        0x00002494:    9b11        ..      LDR      r3,[sp,#0x44]
        0x00002496:    9200        ..      STR      r2,[sp,#0]
        0x00002498:    9812        ..      LDR      r0,[sp,#0x48]
        0x0000249a:    9315        ..      STR      r3,[sp,#0x54]
        0x0000249c:    9a05        ..      LDR      r2,[sp,#0x14]
        0x0000249e:    9201        ..      STR      r2,[sp,#4]
        0x000024a0:    2900        .)      CMP      r1,#0
        0x000024a2:    d001        ..      BEQ      0x24a8 ; _printf_core + 1280
        0x000024a4:    4610        .F      MOV      r0,r2
        0x000024a6:    e002        ..      B        0x24ae ; _printf_core + 1286
        0x000024a8:    1c79        y.      ADDS     r1,r7,#1
        0x000024aa:    1840        @.      ADDS     r0,r0,r1
        0x000024ac:    9001        ..      STR      r0,[sp,#4]
        0x000024ae:    1a38        8.      SUBS     r0,r7,r0
        0x000024b0:    d501        ..      BPL      0x24b6 ; _printf_core + 1294
        0x000024b2:    9801        ..      LDR      r0,[sp,#4]
        0x000024b4:    e004        ..      B        0x24c0 ; _printf_core + 1304
        0x000024b6:    4240        @B      RSBS     r0,r0,#0
        0x000024b8:    1e40        @.      SUBS     r0,r0,#1
        0x000024ba:    9000        ..      STR      r0,[sp,#0]
        0x000024bc:    1c78        x.      ADDS     r0,r7,#1
        0x000024be:    9001        ..      STR      r0,[sp,#4]
        0x000024c0:    1bc0        ..      SUBS     r0,r0,r7
        0x000024c2:    9002        ..      STR      r0,[sp,#8]
        0x000024c4:    e043        C.      B        0x254e ; _printf_core + 1446
        0x000024c6:    2f01        ./      CMP      r7,#1
        0x000024c8:    da00        ..      BGE      0x24cc ; _printf_core + 1316
        0x000024ca:    2701        .'      MOVS     r7,#1
        0x000024cc:    2100        .!      MOVS     r1,#0
        0x000024ce:    2f11        ./      CMP      r7,#0x11
        0x000024d0:    dd01        ..      BLE      0x24d6 ; _printf_core + 1326
        0x000024d2:    2011        .       MOVS     r0,#0x11
        0x000024d4:    e000        ..      B        0x24d8 ; _printf_core + 1328
        0x000024d6:    4638        8F      MOV      r0,r7
        0x000024d8:    9101        ..      STR      r1,[sp,#4]
        0x000024da:    9000        ..      STR      r0,[sp,#0]
        0x000024dc:    a908        ..      ADD      r1,sp,#0x20
        0x000024de:    a811        ..      ADD      r0,sp,#0x44
        0x000024e0:    f7fffca8    ....    BL       _fp_digits ; 0x1e34
        0x000024e4:    9913        ..      LDR      r1,[sp,#0x4c]
        0x000024e6:    9105        ..      STR      r1,[sp,#0x14]
        0x000024e8:    9a11        ..      LDR      r2,[sp,#0x44]
        0x000024ea:    2100        .!      MOVS     r1,#0
        0x000024ec:    9812        ..      LDR      r0,[sp,#0x48]
        0x000024ee:    9215        ..      STR      r2,[sp,#0x54]
        0x000024f0:    9100        ..      STR      r1,[sp,#0]
        0x000024f2:    9701        ..      STR      r7,[sp,#4]
        0x000024f4:    0721        !.      LSLS     r1,r4,#28
        0x000024f6:    d40c        ..      BMI      0x2512 ; _printf_core + 1386
        0x000024f8:    9905        ..      LDR      r1,[sp,#0x14]
        0x000024fa:    42b9        .B      CMP      r1,r7
        0x000024fc:    db01        ..      BLT      0x2502 ; _printf_core + 1370
        0x000024fe:    9901        ..      LDR      r1,[sp,#4]
        0x00002500:    e000        ..      B        0x2504 ; _printf_core + 1372
        0x00002502:    9101        ..      STR      r1,[sp,#4]
        0x00002504:    2901        .)      CMP      r1,#1
        0x00002506:    dd04        ..      BLE      0x2512 ; _printf_core + 1386
        0x00002508:    9a15        ..      LDR      r2,[sp,#0x54]
        0x0000250a:    1e49        I.      SUBS     r1,r1,#1
        0x0000250c:    5c51        Q\      LDRB     r1,[r2,r1]
        0x0000250e:    2930        0)      CMP      r1,#0x30
        0x00002510:    d006        ..      BEQ      0x2520 ; _printf_core + 1400
        0x00002512:    42b8        .B      CMP      r0,r7
        0x00002514:    da01        ..      BGE      0x251a ; _printf_core + 1394
        0x00002516:    1d01        ..      ADDS     r1,r0,#4
        0x00002518:    da05        ..      BGE      0x2526 ; _printf_core + 1406
        0x0000251a:    2101        .!      MOVS     r1,#1
        0x0000251c:    9102        ..      STR      r1,[sp,#8]
        0x0000251e:    e015        ..      B        0x254c ; _printf_core + 1444
        0x00002520:    9901        ..      LDR      r1,[sp,#4]
        0x00002522:    1e49        I.      SUBS     r1,r1,#1
        0x00002524:    e7ed        ..      B        0x2502 ; _printf_core + 1370
        0x00002526:    2800        .(      CMP      r0,#0
        0x00002528:    dc05        ..      BGT      0x2536 ; _printf_core + 1422
        0x0000252a:    9900        ..      LDR      r1,[sp,#0]
        0x0000252c:    1841        A.      ADDS     r1,r0,r1
        0x0000252e:    9100        ..      STR      r1,[sp,#0]
        0x00002530:    9901        ..      LDR      r1,[sp,#4]
        0x00002532:    1a09        ..      SUBS     r1,r1,r0
        0x00002534:    e003        ..      B        0x253e ; _printf_core + 1430
        0x00002536:    9a01        ..      LDR      r2,[sp,#4]
        0x00002538:    1c41        A.      ADDS     r1,r0,#1
        0x0000253a:    4291        .B      CMP      r1,r2
        0x0000253c:    dd00        ..      BLE      0x2540 ; _printf_core + 1432
        0x0000253e:    9101        ..      STR      r1,[sp,#4]
        0x00002540:    9900        ..      LDR      r1,[sp,#0]
        0x00002542:    1a40        @.      SUBS     r0,r0,r1
        0x00002544:    1c40        @.      ADDS     r0,r0,#1
        0x00002546:    9002        ..      STR      r0,[sp,#8]
        0x00002548:    2001        .       MOVS     r0,#1
        0x0000254a:    07c0        ..      LSLS     r0,r0,#31
        0x0000254c:    9003        ..      STR      r0,[sp,#0xc]
        0x0000254e:    0720         .      LSLS     r0,r4,#28
        0x00002550:    d406        ..      BMI      0x2560 ; _printf_core + 1464
        0x00002552:    9902        ..      LDR      r1,[sp,#8]
        0x00002554:    9801        ..      LDR      r0,[sp,#4]
        0x00002556:    4281        .B      CMP      r1,r0
        0x00002558:    db02        ..      BLT      0x2560 ; _printf_core + 1464
        0x0000255a:    2000        .       MOVS     r0,#0
        0x0000255c:    43c0        .C      MVNS     r0,r0
        0x0000255e:    9002        ..      STR      r0,[sp,#8]
        0x00002560:    2000        .       MOVS     r0,#0
        0x00002562:    4669        iF      MOV      r1,sp
        0x00002564:    77c8        .w      STRB     r0,[r1,#0x1f]
        0x00002566:    af07        ..      ADD      r7,sp,#0x1c
        0x00002568:    2101        .!      MOVS     r1,#1
        0x0000256a:    9803        ..      LDR      r0,[sp,#0xc]
        0x0000256c:    3703        .7      ADDS     r7,#3
        0x0000256e:    07c9        ..      LSLS     r1,r1,#31
        0x00002570:    4288        .B      CMP      r0,r1
        0x00002572:    d024        $.      BEQ      0x25be ; _printf_core + 1558
        0x00002574:    2002        .       MOVS     r0,#2
        0x00002576:    9011        ..      STR      r0,[sp,#0x44]
        0x00002578:    202b        +       MOVS     r0,#0x2b
        0x0000257a:    9012        ..      STR      r0,[sp,#0x48]
        0x0000257c:    9803        ..      LDR      r0,[sp,#0xc]
        0x0000257e:    2800        .(      CMP      r0,#0
        0x00002580:    da0c        ..      BGE      0x259c ; _printf_core + 1524
        0x00002582:    4240        @B      RSBS     r0,r0,#0
        0x00002584:    9003        ..      STR      r0,[sp,#0xc]
        0x00002586:    202d        -       MOVS     r0,#0x2d
        0x00002588:    9012        ..      STR      r0,[sp,#0x48]
        0x0000258a:    e007        ..      B        0x259c ; _printf_core + 1524
        0x0000258c:    210a        .!      MOVS     r1,#0xa
        0x0000258e:    9803        ..      LDR      r0,[sp,#0xc]
        0x00002590:    f7fef87a    ..z.    BL       __aeabi_uidiv$div0 ; 0x688
        0x00002594:    3130        01      ADDS     r1,r1,#0x30
        0x00002596:    1e7f        ..      SUBS     r7,r7,#1
        0x00002598:    9003        ..      STR      r0,[sp,#0xc]
        0x0000259a:    7039        9p      STRB     r1,[r7,#0]
        0x0000259c:    9911        ..      LDR      r1,[sp,#0x44]
        0x0000259e:    1e48        H.      SUBS     r0,r1,#1
        0x000025a0:    9011        ..      STR      r0,[sp,#0x44]
        0x000025a2:    2900        .)      CMP      r1,#0
        0x000025a4:    dcf2        ..      BGT      0x258c ; _printf_core + 1508
        0x000025a6:    9803        ..      LDR      r0,[sp,#0xc]
        0x000025a8:    2800        .(      CMP      r0,#0
        0x000025aa:    d1ef        ..      BNE      0x258c ; _printf_core + 1508
        0x000025ac:    1e79        y.      SUBS     r1,r7,#1
        0x000025ae:    9812        ..      LDR      r0,[sp,#0x48]
        0x000025b0:    7008        .p      STRB     r0,[r1,#0]
        0x000025b2:    7830        0x      LDRB     r0,[r6,#0]
        0x000025b4:    2120         !      MOVS     r1,#0x20
        0x000025b6:    4008        .@      ANDS     r0,r0,r1
        0x000025b8:    3045        E0      ADDS     r0,r0,#0x45
        0x000025ba:    1ebf        ..      SUBS     r7,r7,#2
        0x000025bc:    7038        8p      STRB     r0,[r7,#0]
        0x000025be:    a806        ..      ADD      r0,sp,#0x18
        0x000025c0:    1bc0        ..      SUBS     r0,r0,r7
        0x000025c2:    1dc0        ..      ADDS     r0,r0,#7
        0x000025c4:    9003        ..      STR      r0,[sp,#0xc]
        0x000025c6:    9810        ..      LDR      r0,[sp,#0x40]
        0x000025c8:    7800        .x      LDRB     r0,[r0,#0]
        0x000025ca:    2800        .(      CMP      r0,#0
        0x000025cc:    d000        ..      BEQ      0x25d0 ; _printf_core + 1576
        0x000025ce:    2001        .       MOVS     r0,#1
        0x000025d0:    9901        ..      LDR      r1,[sp,#4]
        0x000025d2:    1841        A.      ADDS     r1,r0,r1
        0x000025d4:    9802        ..      LDR      r0,[sp,#8]
        0x000025d6:    17c0        ..      ASRS     r0,r0,#31
        0x000025d8:    1809        ..      ADDS     r1,r1,r0
        0x000025da:    9803        ..      LDR      r0,[sp,#0xc]
        0x000025dc:    1809        ..      ADDS     r1,r1,r0
        0x000025de:    9804        ..      LDR      r0,[sp,#0x10]
        0x000025e0:    1a40        @.      SUBS     r0,r0,r1
        0x000025e2:    1e40        @.      SUBS     r0,r0,#1
        0x000025e4:    9004        ..      STR      r0,[sp,#0x10]
        0x000025e6:    03e0        ..      LSLS     r0,r4,#15
        0x000025e8:    d406        ..      BMI      0x25f8 ; _printf_core + 1616
        0x000025ea:    4621        !F      MOV      r1,r4
        0x000025ec:    9b1a        ..      LDR      r3,[sp,#0x68]
        0x000025ee:    9a19        ..      LDR      r2,[sp,#0x64]
        0x000025f0:    9804        ..      LDR      r0,[sp,#0x10]
        0x000025f2:    f000f85f    .._.    BL       _printf_pre_padding ; 0x26b4
        0x000025f6:    1945        E.      ADDS     r5,r0,r5
        0x000025f8:    9810        ..      LDR      r0,[sp,#0x40]
        0x000025fa:    7800        .x      LDRB     r0,[r0,#0]
        0x000025fc:    2800        .(      CMP      r0,#0
        0x000025fe:    d003        ..      BEQ      0x2608 ; _printf_core + 1632
        0x00002600:    9a1a        ..      LDR      r2,[sp,#0x68]
        0x00002602:    9919        ..      LDR      r1,[sp,#0x64]
        0x00002604:    4790        .G      BLX      r2
        0x00002606:    1c6d        m.      ADDS     r5,r5,#1
        0x00002608:    03e0        ..      LSLS     r0,r4,#15
        0x0000260a:    d524        $.      BPL      0x2656 ; _printf_core + 1710
        0x0000260c:    4621        !F      MOV      r1,r4
        0x0000260e:    9b1a        ..      LDR      r3,[sp,#0x68]
        0x00002610:    9a19        ..      LDR      r2,[sp,#0x64]
        0x00002612:    9804        ..      LDR      r0,[sp,#0x10]
        0x00002614:    f000f84e    ..N.    BL       _printf_pre_padding ; 0x26b4
        0x00002618:    1945        E.      ADDS     r5,r0,r5
        0x0000261a:    e01c        ..      B        0x2656 ; _printf_core + 1710
        0x0000261c:    9800        ..      LDR      r0,[sp,#0]
        0x0000261e:    2800        .(      CMP      r0,#0
        0x00002620:    db07        ..      BLT      0x2632 ; _printf_core + 1674
        0x00002622:    9900        ..      LDR      r1,[sp,#0]
        0x00002624:    9805        ..      LDR      r0,[sp,#0x14]
        0x00002626:    4288        .B      CMP      r0,r1
        0x00002628:    dd03        ..      BLE      0x2632 ; _printf_core + 1674
        0x0000262a:    9815        ..      LDR      r0,[sp,#0x54]
        0x0000262c:    5c40        @\      LDRB     r0,[r0,r1]
        0x0000262e:    9919        ..      LDR      r1,[sp,#0x64]
        0x00002630:    e001        ..      B        0x2636 ; _printf_core + 1678
        0x00002632:    9919        ..      LDR      r1,[sp,#0x64]
        0x00002634:    2030        0       MOVS     r0,#0x30
        0x00002636:    9a1a        ..      LDR      r2,[sp,#0x68]
        0x00002638:    4790        .G      BLX      r2
        0x0000263a:    9800        ..      LDR      r0,[sp,#0]
        0x0000263c:    1c6d        m.      ADDS     r5,r5,#1
        0x0000263e:    1c40        @.      ADDS     r0,r0,#1
        0x00002640:    9000        ..      STR      r0,[sp,#0]
        0x00002642:    9802        ..      LDR      r0,[sp,#8]
        0x00002644:    1e40        @.      SUBS     r0,r0,#1
        0x00002646:    9002        ..      STR      r0,[sp,#8]
        0x00002648:    2800        .(      CMP      r0,#0
        0x0000264a:    d104        ..      BNE      0x2656 ; _printf_core + 1710
        0x0000264c:    9a1a        ..      LDR      r2,[sp,#0x68]
        0x0000264e:    202e        .       MOVS     r0,#0x2e
        0x00002650:    9919        ..      LDR      r1,[sp,#0x64]
        0x00002652:    4790        .G      BLX      r2
        0x00002654:    1c6d        m.      ADDS     r5,r5,#1
        0x00002656:    9901        ..      LDR      r1,[sp,#4]
        0x00002658:    1e48        H.      SUBS     r0,r1,#1
        0x0000265a:    9001        ..      STR      r0,[sp,#4]
        0x0000265c:    2900        .)      CMP      r1,#0
        0x0000265e:    dcdd        ..      BGT      0x261c ; _printf_core + 1652
        0x00002660:    e005        ..      B        0x266e ; _printf_core + 1734
        0x00002662:    7838        8x      LDRB     r0,[r7,#0]
        0x00002664:    9a1a        ..      LDR      r2,[sp,#0x68]
        0x00002666:    1c7f        ..      ADDS     r7,r7,#1
        0x00002668:    9919        ..      LDR      r1,[sp,#0x64]
        0x0000266a:    4790        .G      BLX      r2
        0x0000266c:    1c6d        m.      ADDS     r5,r5,#1
        0x0000266e:    9903        ..      LDR      r1,[sp,#0xc]
        0x00002670:    1e48        H.      SUBS     r0,r1,#1
        0x00002672:    9003        ..      STR      r0,[sp,#0xc]
        0x00002674:    2900        .)      CMP      r1,#0
        0x00002676:    dcf4        ..      BGT      0x2662 ; _printf_core + 1722
        0x00002678:    4621        !F      MOV      r1,r4
        0x0000267a:    9b1a        ..      LDR      r3,[sp,#0x68]
        0x0000267c:    9a19        ..      LDR      r2,[sp,#0x64]
        0x0000267e:    9804        ..      LDR      r0,[sp,#0x10]
        0x00002680:    e6ac        ..      B        0x23dc ; _printf_core + 1076
    $d
        0x00002682:    0000        ..      DCW    0
        0x00002684:    0000002d    -...    DCD    45
        0x00002688:    0000002b    +...    DCD    43
        0x0000268c:    00000020     ...    DCD    32
        0x00002690:    00000000    ....    DCD    0
    $t
    i._printf_post_padding
    _printf_post_padding
        0x00002694:    b5f8        ..      PUSH     {r3-r7,lr}
        0x00002696:    4604        .F      MOV      r4,r0
        0x00002698:    2500        .%      MOVS     r5,#0
        0x0000269a:    461e        .F      MOV      r6,r3
        0x0000269c:    4617        .F      MOV      r7,r2
        0x0000269e:    0488        ..      LSLS     r0,r1,#18
        0x000026a0:    d404        ..      BMI      0x26ac ; _printf_post_padding + 24
        0x000026a2:    e005        ..      B        0x26b0 ; _printf_post_padding + 28
        0x000026a4:    4639        9F      MOV      r1,r7
        0x000026a6:    2020                MOVS     r0,#0x20
        0x000026a8:    47b0        .G      BLX      r6
        0x000026aa:    1c6d        m.      ADDS     r5,r5,#1
        0x000026ac:    1e64        d.      SUBS     r4,r4,#1
        0x000026ae:    d5f9        ..      BPL      0x26a4 ; _printf_post_padding + 16
        0x000026b0:    4628        (F      MOV      r0,r5
        0x000026b2:    bdf8        ..      POP      {r3-r7,pc}
    i._printf_pre_padding
    _printf_pre_padding
        0x000026b4:    b5ff        ..      PUSH     {r0-r7,lr}
        0x000026b6:    4604        .F      MOV      r4,r0
        0x000026b8:    2500        .%      MOVS     r5,#0
        0x000026ba:    b081        ..      SUB      sp,sp,#4
        0x000026bc:    461e        .F      MOV      r6,r3
        0x000026be:    03c8        ..      LSLS     r0,r1,#15
        0x000026c0:    d501        ..      BPL      0x26c6 ; _printf_pre_padding + 18
        0x000026c2:    2730        0'      MOVS     r7,#0x30
        0x000026c4:    e000        ..      B        0x26c8 ; _printf_pre_padding + 20
        0x000026c6:    2720         '      MOVS     r7,#0x20
        0x000026c8:    0488        ..      LSLS     r0,r1,#18
        0x000026ca:    d504        ..      BPL      0x26d6 ; _printf_pre_padding + 34
        0x000026cc:    e005        ..      B        0x26da ; _printf_pre_padding + 38
        0x000026ce:    4638        8F      MOV      r0,r7
        0x000026d0:    9903        ..      LDR      r1,[sp,#0xc]
        0x000026d2:    47b0        .G      BLX      r6
        0x000026d4:    1c6d        m.      ADDS     r5,r5,#1
        0x000026d6:    1e64        d.      SUBS     r4,r4,#1
        0x000026d8:    d5f9        ..      BPL      0x26ce ; _printf_pre_padding + 26
        0x000026da:    4628        (F      MOV      r0,r5
        0x000026dc:    b005        ..      ADD      sp,sp,#0x14
        0x000026de:    bdf0        ..      POP      {r4-r7,pc}
    $d.realdata
        0x000026e0:    00003c34    4<..    DCD    15412
        0x000026e4:    5c544c44    DLT\    DCD    1549028420
        0x000026e8:    7c740064    d.t|    DCD    2087977060
        0x000026ec:    9c948c84    ....    DCD    2626980996
        0x000026f0:    00b4aca4    ....    DCD    11840676
        0x000026f4:    000027d0    .'..    DCD    10192
        0x000026f8:    000027e6    .'..    DCD    10214
        0x000026fc:    00000000    ....    DCD    0
        0x00002700:    00000000    ....    DCD    0
        0x00002704:    00002808    .(..    DCD    10248
        0x00002708:    00002804    .(..    DCD    10244
        0x0000270c:    000027f9    .'..    DCD    10233
        0x00002710:    000027f5    .'..    DCD    10229
        0x00002714:    000027d5    .'..    DCD    10197
        0x00002718:    00000000    ....    DCD    0
        0x0000271c:    000027ca    .'..    DCD    10186
        0x00002720:    000027e0    .'..    DCD    10208
        0x00002724:    000027da    .'..    DCD    10202
        0x00002728:    000027eb    .'..    DCD    10219
        0x0000272c:    000027f1    .'..    DCD    10225
        0x00002730:    000027fe    .'..    DCD    10238
        0x00002734:    00002816    .(..    DCD    10262
        0x00002738:    0000280d    .(..    DCD    10253
        0x0000273c:    00002811    .(..    DCD    10257
    .L__const.CLK_SetModuleClock.au32SelTbl
        0x00002740:    00000000    ....    DCD    0
        0x00002744:    00000004    ....    DCD    4
        0x00002748:    00000008    ....    DCD    8
        0x0000274c:    0000000c    ....    DCD    12
    .L__const.CLK_SetModuleClock.au32DivTbl
        0x00002750:    00000000    ....    DCD    0
        0x00002754:    00000004    ....    DCD    4
        0x00002758:    00000008    ....    DCD    8
        0x0000275c:    00000010    ....    DCD    16
    .L__const.CLK_GetModuleClockSource.au32SelTbl
        0x00002760:    00000000    ....    DCD    0
        0x00002764:    00000004    ....    DCD    4
        0x00002768:    00000008    ....    DCD    8
        0x0000276c:    0000000c    ....    DCD    12
    .L__const.CLK_GetModuleClockDivider.au32DivTbl
        0x00002770:    00000000    ....    DCD    0
        0x00002774:    00000004    ....    DCD    4
        0x00002778:    00000008    ....    DCD    8
        0x0000277c:    00000010    ....    DCD    16
    .L__const.CLK_GetCPUFreq.au32ClkTbl
        0x00002780:    00b71b00    ....    DCD    12000000
        0x00002784:    00008000    ....    DCD    32768
        0x00002788:    00000000    ....    DCD    0
        0x0000278c:    00002710    .'..    DCD    10000
        0x00002790:    00000000    ....    DCD    0
        0x00002794:    02dc6c00    .l..    DCD    48000000
        0x00002798:    00000000    ....    DCD    0
        0x0000279c:    00b71b00    ....    DCD    12000000
    .L.str.17
        0x000027a0:    73252020      %s    DCD    1931812896
        0x000027a4:    25783028    (0x%    DCD    628633640
        0x000027a8:    29783830    08x)    DCD    695744560
        0x000027ac:    616c4120     Ala    DCD    1634484512
        0x000027b0:    20216d72    rm!     DCD    539061618
        0x000027b4:    656c6c69    ille    DCD    1701604457
        0x000027b8:    206c6167    gal     DCD    543973735
        0x000027bc:    65636361    acce    DCD    1701012321
        0x000027c0:    62207373    ss b    DCD    1646293875
        0x000027c4:    73252079    y %s    DCD    1931812985
        0x000027c8:    000a        ..      DCW    10
    .L.str.1
    .L.str.35
        0x000027ca:    4450        PD      DCW    17488
        0x000027cc:    0030414d    MA0.    DCD    3162445
    .L.str.6
        0x000027d0:    30425041    APB0    DCD    809652289
        0x000027d4:    00          .       DCB    0
    .L.str.2
    .L.str.39
        0x000027d5:    534448      SDH     DCB    83,68,72
        0x000027d8:    0030        0.      DCW    48
    .L.str.11
        0x000027da:    5253        SR      DCW    21075
        0x000027dc:    00304d41    AM0.    DCD    3165505
    .L.str.5
    .L.str.36
        0x000027e0:    414d4450    PDMA    DCD    1095582800
        0x000027e4:    0031        1.      DCW    49
    .L.str.7
        0x000027e6:    5041        AP      DCW    20545
        0x000027e8:    3142        B1      DCW    12610
        0x000027ea:    00          .       DCB    0
    .L.str.12
        0x000027eb:    53          S       DCB    83
        0x000027ec:    314d4152    RAM1    DCD    827146578
        0x000027f0:    00          .       DCB    0
    .L.str.13
    .L.str.38
        0x000027f1:    464d43      FMC     DCB    70,77,67
        0x000027f4:    00          .       DCB    0
    .L.str.10
    .L.str.42
        0x000027f5:    435243      CRC     DCB    67,82,67
        0x000027f8:    00          .       DCB    0
    .L.str.4
    .L.str.37
        0x000027f9:    555342      USB     DCB    85,83,66
        0x000027fc:    0048        H.      DCW    72
    .L.str.14
        0x000027fe:    4c46        FL      DCW    19526
        0x00002800:    00485341    ASH.    DCD    4739905
    .L.str.9
    .L.str.40
        0x00002804:    00494245    EBI.    DCD    4801093
    .L.str.8
        0x00002808:    4f495047    GPIO    DCD    1330204743
        0x0000280c:    00          .       DCB    0
    .L.str.16
    .L.str.15
        0x0000280d:    535953      SYS     DCB    83,89,83
        0x00002810:    00          .       DCB    0
    .L.str.3
    .L.str.43
        0x00002811:    435250      CRP     DCB    67,82,80
        0x00002814:    0054        T.      DCW    84
    .L.str.15
    .L.str.41
        0x00002816:    4353        SC      DCW    17235
        0x00002818:    0055        U.      DCW    85
    .L.str
        0x0000281a:    5043        CP      DCW    20547
        0x0000281c:    0055        U.      DCW    85
    .L.str.6
        0x0000281e:    6f4e        No      DCW    28494
        0x00002820:    646f6320     cod    DCD    1685021472
        0x00002824:    6e692065    e in    DCD    1852383333
        0x00002828:    6e6f6e20     non    DCD    1852796448
        0x0000282c:    6365732d    -sec    DCD    1667593005
        0x00002830:    20657275    ure     DCD    543519349
        0x00002834:    69676572    regi    DCD    1768383858
        0x00002838:    0a216e6f    on!.    DCD    169963119
        0x0000283c:    00          .       DCB    0
    .L.str.5
        0x0000283d:    457865      Exe     DCB    69,120,101
        0x00002840:    65747563    cute    DCD    1702131043
        0x00002844:    6e6f6e20     non    DCD    1852796448
        0x00002848:    6365732d    -sec    DCD    1667593005
        0x0000284c:    20657275    ure     DCD    543519349
        0x00002850:    65646f63    code    DCD    1701080931
        0x00002854:    2e2e2e20     ...    DCD    774778400
        0x00002858:    000a        ..      DCW    10
    .L.str.8
        0x0000285a:    6553        Se      DCW    25939
        0x0000285c:    65727563    cure    DCD    1701999971
        0x00002860:    20736920     is     DCD    544434464
        0x00002864:    6e6e7572    runn    DCD    1852732786
        0x00002868:    20676e69    ing     DCD    543649385
        0x0000286c:    0a2e2e2e    ....    DCD    170798638
        0x00002870:    00          .       DCB    0
    .L.str
        0x00002871:    536563      Sec     DCB    83,101,99
        0x00002874:    20657275    ure     DCD    543519349
        0x00002878:    2043534e    NSC     DCD    541283150
        0x0000287c:    636e7566    func    DCD    1668183398
        0x00002880:    000a        ..      DCW    10
    .L.str.2
        0x00002882:    6553        Se      DCW    25939
        0x00002884:    65727563    cure    DCD    1701999971
        0x00002888:    44454c20     LED    DCD    1145392160
        0x0000288c:    66664f20     Off    DCD    1717980960
        0x00002890:    6c616320     cal    DCD    1818321696
        0x00002894:    7962206c    l by    DCD    2036473964
        0x00002898:    6e6f4e20     Non    DCD    1852788256
        0x0000289c:    6365732d    -sec    DCD    1667593005
        0x000028a0:    0a657275    ure.    DCD    174420597
        0x000028a4:    00          .       DCB    0
    .L.str.1
        0x000028a5:    536563      Sec     DCB    83,101,99
        0x000028a8:    20657275    ure     DCD    543519349
        0x000028ac:    2044454c    LED     DCD    541345100
        0x000028b0:    63206e4f    On c    DCD    1663069775
        0x000028b4:    206c6c61    all     DCD    543976545
        0x000028b8:    4e207962    by N    DCD    1310751074
        0x000028bc:    732d6e6f    on-s    DCD    1932357231
        0x000028c0:    72756365    ecur    DCD    1920295781
        0x000028c4:    0a65        e.      DCW    2661
        0x000028c6:    00          .       DCB    0
    .L.str.7
        0x000028c7:    43          C       DCB    67
        0x000028c8:    77205550    PU w    DCD    1998607696
        0x000028cc:    206c6c69    ill     DCD    543976553
        0x000028d0:    746c6168    halt    DCD    1953259880
        0x000028d4:    61206465    ed a    DCD    1629512805
        0x000028d8:    6f6e2074    t no    DCD    1869488244
        0x000028dc:    65732d6e    n-se    DCD    1702047086
        0x000028e0:    65727563    cure    DCD    1701999971
        0x000028e4:    61747320     sta    DCD    1635021600
        0x000028e8:    000a6574    te..    DCD    681332
    .L.str.4
        0x000028ec:    75636553    Secu    DCD    1969448275
        0x000028f0:    4c206572    re L    DCD    1277191538
        0x000028f4:    4f204445    ED O    DCD    1327514693
        0x000028f8:    000a6666    ff..    DCD    681574
    .L.str.3
        0x000028fc:    75636553    Secu    DCD    1969448275
        0x00002900:    4c206572    re L    DCD    1277191538
        0x00002904:    4f204445    ED O    DCD    1327514693
        0x00002908:    0a6e        n.      DCW    2670
        0x0000290a:    00          .       DCB    0
    .L.str.9
        0x0000290b:    20                  DCB    32
        0x0000290c:    656e5520     Une    DCD    1701729568
        0x00002910:    63657078    xpec    DCD    1667592312
        0x00002914:    20646574    ted     DCD    543450484
        0x00002918:    74736e69    inst    DCD    1953721961
        0x0000291c:    74637572    ruct    DCD    1952675186
        0x00002920:    3a6e6f69    ion:    DCD    980316009
        0x00002924:    25783020     0x%    DCD    628633632
        0x00002928:    20783430    04x     DCD    544748592
        0x0000292c:    000a        ..      DCW    10
    .L.str
        0x0000292e:    2121        !!      DCW    8481
        0x00002930:    2d2d2d2d    ----    DCD    757935405
        0x00002934:    2d2d2d2d    ----    DCD    757935405
        0x00002938:    2d2d2d2d    ----    DCD    757935405
        0x0000293c:    2d2d2d2d    ----    DCD    757935405
        0x00002940:    2d2d2d2d    ----    DCD    757935405
        0x00002944:    2d2d2d2d    ----    DCD    757935405
        0x00002948:    2d2d2d2d    ----    DCD    757935405
        0x0000294c:    2d2d2d2d    ----    DCD    757935405
        0x00002950:    2d2d2d2d    ----    DCD    757935405
        0x00002954:    2d2d2d2d    ----    DCD    757935405
        0x00002958:    2d2d2d2d    ----    DCD    757935405
        0x0000295c:    2d2d2d2d    ----    DCD    757935405
        0x00002960:    2d2d2d2d    ----    DCD    757935405
        0x00002964:    2d2d2d2d    ----    DCD    757935405
        0x00002968:    2d2d2d2d    ----    DCD    757935405
        0x0000296c:    212d2d2d    ---!    DCD    556608813
        0x00002970:    0a21        !.      DCW    2593
        0x00002972:    00          .       DCB    0
    .L.str.10
        0x00002973:    20                  DCB    32
        0x00002974:    6c6c4920     Ill    DCD    1819035936
        0x00002978:    6c616765    egal    DCD    1818322789
        0x0000297c:    63636120     acc    DCD    1667457312
        0x00002980:    20737365    ess     DCD    544437093
        0x00002984:    25206f74    to %    DCD    622882676
        0x00002988:    73252073    s %s    DCD    1931812979
        0x0000298c:    206e6920     in     DCD    544106784
        0x00002990:    736e6f4e    Nons    DCD    1936617294
        0x00002994:    72756365    ecur    DCD    1920295781
        0x00002998:    6f632065    e co    DCD    1868767333
        0x0000299c:    0a2e6564    de..    DCD    170812772
        0x000029a0:    00          .       DCB    0
    .L.str.13
        0x000029a1:    202049        I     DCB    32,32,73
        0x000029a4:    67656c6c    lleg    DCD    1734700140
        0x000029a8:    61206c61    al a    DCD    1629514849
        0x000029ac:    73656363    cces    DCD    1936024419
        0x000029b0:    6f742073    s to    DCD    1869881459
        0x000029b4:    20732520     %s     DCD    544417056
        0x000029b8:    69207325    %s i    DCD    1763734309
        0x000029bc:    6f4e206e    n No    DCD    1867391086
        0x000029c0:    6365736e    nsec    DCD    1667593070
        0x000029c4:    20657275    ure     DCD    543519349
        0x000029c8:    65646f63    code    DCD    1701080931
        0x000029cc:    74490a2e    ..It    DCD    1950943790
        0x000029d0:    79616d20     may    DCD    2036428064
        0x000029d4:    20656220     be     DCD    543515168
        0x000029d8:    20746573    set     DCD    544499059
        0x000029dc:    73207361    as s    DCD    1931506529
        0x000029e0:    72756365    ecur    DCD    1920295781
        0x000029e4:    50492065    e IP    DCD    1346969701
        0x000029e8:    72656820     her    DCD    1919248416
        0x000029ec:    000a2e65    e...    DCD    667237
    .L.str.3
        0x000029f0:    72542020      Tr    DCD    1918115872
        0x000029f4:    6f742079    y to    DCD    1869881465
        0x000029f8:    65686320     che    DCD    1701339936
        0x000029fc:    4e206b63    ck N    DCD    1310747491
        0x00002a00:    72204353    SC r    DCD    1914717011
        0x00002a04:    6f696765    egio    DCD    1869178725
        0x00002a08:    726f206e    n or    DCD    1919885422
        0x00002a0c:    55415320     SAU    DCD    1430344480
        0x00002a10:    74657320     set    DCD    1952805664
        0x00002a14:    676e6974    ting    DCD    1735289204
        0x00002a18:    000a2e73    s...    DCD    667251
    .L.str.1
        0x00002a1c:    20202020            DCD    538976288
        0x00002a20:    20202020            DCD    538976288
        0x00002a24:    20202020            DCD    538976288
        0x00002a28:    20202020            DCD    538976288
        0x00002a2c:    20202020            DCD    538976288
        0x00002a30:    3c202020       <    DCD    1008738336
        0x00002a34:    48203c3c    << H    DCD    1210072124
        0x00002a38:    46647261    ardF    DCD    1180988001
        0x00002a3c:    746c7561    ault    DCD    1953264993
        0x00002a40:    3e3e3e20     >>>    DCD    1044266528
        0x00002a44:    000a        ..      DCW    10
    .L.str.5
        0x00002a46:    2020                DCW    8224
        0x00002a48:    2578305b    [0x%    DCD    628633691
        0x00002a4c:    5d783830    08x]    DCD    1568159792
        0x00002a50:    25783020     0x%    DCD    628633632
        0x00002a54:    20783430    04x     DCD    544748592
        0x00002a58:    52207325    %s R    DCD    1377858341
        0x00002a5c:    5b206425    %d [    DCD    1528849445
        0x00002a60:    78257830    0x%x    DCD    2015721520
        0x00002a64:    0a5d        ].      DCW    2653
        0x00002a66:    00          .       DCB    0
    .L.str.8
        0x00002a67:    20                  DCB    32
        0x00002a68:    78305b20     [0x    DCD    2016434976
        0x00002a6c:    78383025    %08x    DCD    2016948261
        0x00002a70:    7830205d    ] 0x    DCD    2016419933
        0x00002a74:    78343025    %04x    DCD    2016686117
        0x00002a78:    20732520     %s     DCD    544417056
        0x00002a7c:    78257830    0x%x    DCD    2015721520
        0x00002a80:    78305b20     [0x    DCD    2016434976
        0x00002a84:    0a5d7825    %x].    DCD    173897765
        0x00002a88:    00          .       DCB    0
    .L.str.4
        0x00002a89:    202045        E     DCB    32,32,69
        0x00002a8c:    75636578    xecu    DCD    1969448312
        0x00002a90:    42206574    te B    DCD    1109419380
        0x00002a94:    2054504b    KPT     DCD    542396491
        0x00002a98:    68746977    with    DCD    1752459639
        0x00002a9c:    2074756f    out     DCD    544503151
        0x00002aa0:    20454349    ICE     DCD    541410121
        0x00002aa4:    6e6e6f63    conn    DCD    1852731235
        0x00002aa8:    65746365    ecte    DCD    1702126437
        0x00002aac:    0a64        d.      DCW    2660
        0x00002aae:    00          .       DCB    0
    .L.str.14
        0x00002aaf:    20                  DCB    32
        0x00002ab0:    6c6c4920     Ill    DCD    1819035936
        0x00002ab4:    6c616765    egal    DCD    1818322789
        0x00002ab8:    206f7420     to     DCD    544175136
        0x00002abc:    20657375    use     DCD    543519605
        0x00002ac0:    736e6f4e    Nons    DCD    1936617294
        0x00002ac4:    72756365    ecur    DCD    1920295781
        0x00002ac8:    64612065    e ad    DCD    1684086885
        0x00002acc:    73657264    dres    DCD    1936028260
        0x00002ad0:    6f742073    s to    DCD    1869881459
        0x00002ad4:    63636120     acc    DCD    1667457312
        0x00002ad8:    20737365    ess     DCD    544437093
        0x00002adc:    25207325    %s %    DCD    622883621
        0x00002ae0:    6e692073    s in    DCD    1852383347
        0x00002ae4:    63655320     Sec    DCD    1667584800
        0x00002ae8:    20657275    ure     DCD    543519349
        0x00002aec:    65646f63    code    DCD    1701080931
        0x00002af0:    000a        ..      DCW    10
    .L.str.2
        0x00002af2:    2020                DCW    8224
        0x00002af4:    2d6e6f4e    Non-    DCD    762212174
        0x00002af8:    75636573    secu    DCD    1969448307
        0x00002afc:    43206572    re C    DCD    1126196594
        0x00002b00:    74205550    PU t    DCD    1948276048
        0x00002b04:    74207972    ry t    DCD    1948285298
        0x00002b08:    6566206f    o fe    DCD    1701191791
        0x00002b0c:    20686374    tch     DCD    543712116
        0x00002b10:    75636573    secu    DCD    1969448307
        0x00002b14:    63206572    re c    DCD    1663067506
        0x00002b18:    2065646f    ode     DCD    543515759
        0x00002b1c:    30206e69    in 0    DCD    807431785
        0x00002b20:    0a782578    x%x.    DCD    175646072
        0x00002b24:    00          .       DCB    0
    .L.str.70
        0x00002b25:    493243      I2C     DCB    73,50,67
        0x00002b28:    0030        0.      DCW    48
    .L.str.49
        0x00002b2a:    4144        DA      DCW    16708
        0x00002b2c:    3043        C0      DCW    12355
        0x00002b2e:    00          .       DCB    0
    .L.str.73
        0x00002b2f:    53          S       DCB    83
        0x00002b30:    3043        C0      DCW    12355
        0x00002b32:    00          .       DCB    0
    .L.str.83
        0x00002b33:    55          U       DCB    85
        0x00002b34:    30494353    SCI0    DCD    810107731
        0x00002b38:    00          .       DCB    0
    .L.str.77
        0x00002b39:    514549      QEI     DCB    81,69,73
        0x00002b3c:    0030        0.      DCW    48
    .L.str.59
        0x00002b3e:    51          Q       DCB    81
    .L.str.60
        0x00002b3f:    53          S       DCB    83
        0x00002b40:    00304950    PI0.    DCD    3164496
    .L.str.57
        0x00002b44:    4d575042    BPWM    DCD    1297567810
        0x00002b48:    0030        0.      DCW    48
    .L.str.55
        0x00002b4a:    5045        EP      DCW    20549
        0x00002b4c:    00304d57    WM0.    DCD    3165527
    .L.str.76
        0x00002b50:    304e4143    CAN0    DCD    810434883
        0x00002b54:    00          .       DCB    0
    .L.str.79
        0x00002b55:    454341      ECA     DCB    69,67,65
        0x00002b58:    3050        P0      DCW    12368
        0x00002b5a:    00          .       DCB    0
    .L.str.51
        0x00002b5b:    49          I       DCB    73
        0x00002b5c:    00305332    2S0.    DCD    3167026
    .L.str.64
        0x00002b60:    54524155    UART    DCD    1414676821
        0x00002b64:    0030        0.      DCW    48
    .L.str.48
        0x00002b66:    4341        AC      DCW    17217
        0x00002b68:    3130504d    MP01    DCD    825249869
        0x00002b6c:    00          .       DCB    0
    .L.str.53
        0x00002b6d:    544d52      TMR     DCB    84,77,82
        0x00002b70:    3130        01      DCW    12592
        0x00002b72:    00          .       DCB    0
    .L.str.71
        0x00002b73:    49          I       DCB    73
        0x00002b74:    00314332    2C1.    DCD    3228466
    .L.str.50
        0x00002b78:    31434144    DAC1    DCD    826491204
        0x00002b7c:    00          .       DCB    0
    .L.str.74
        0x00002b7d:    534331      SC1     DCB    83,67,49
        0x00002b80:    00          .       DCB    0
    .L.str.84
        0x00002b81:    555343      USC     DCB    85,83,67
        0x00002b84:    3149        I1      DCW    12617
        0x00002b86:    00          .       DCB    0
    .L.str.78
        0x00002b87:    51          Q       DCB    81
        0x00002b88:    00314945    EI1.    DCD    3230021
    .L.str.61
        0x00002b8c:    31495053    SPI1    DCD    826888275
        0x00002b90:    00          .       DCB    0
    .L.str.58
        0x00002b91:    425057      BPW     DCB    66,80,87
        0x00002b94:    314d        M1      DCW    12621
        0x00002b96:    00          .       DCB    0
    .L.str.56
        0x00002b97:    45          E       DCB    69
        0x00002b98:    314d5750    PWM1    DCD    827152208
        0x00002b9c:    00          .       DCB    0
    .L.str.80
        0x00002b9d:    454341      ECA     DCB    69,67,65
        0x00002ba0:    3150        P1      DCW    12624
        0x00002ba2:    00          .       DCB    0
    .L.str.65
        0x00002ba3:    55          U       DCB    85
        0x00002ba4:    31545241    ART1    DCD    827609665
        0x00002ba8:    00          .       DCB    0
    .L.str.72
        0x00002ba9:    493243      I2C     DCB    73,50,67
        0x00002bac:    0032        2.      DCW    50
    .L.str.75
        0x00002bae:    4353        SC      DCW    17235
        0x00002bb0:    0032        2.      DCW    50
    .L.str.62
        0x00002bb2:    5053        SP      DCW    20563
        0x00002bb4:    3249        I2      DCW    12873
        0x00002bb6:    00          .       DCB    0
    .L.str.66
        0x00002bb7:    55          U       DCB    85
        0x00002bb8:    32545241    ART2    DCD    844386881
        0x00002bbc:    00          .       DCB    0
    .L.str.54
        0x00002bbd:    544d52      TMR     DCB    84,77,82
        0x00002bc0:    3332        23      DCW    13106
        0x00002bc2:    00          .       DCB    0
    .L.str.63
        0x00002bc3:    53          S       DCB    83
        0x00002bc4:    00334950    PI3.    DCD    3361104
    .L.str.67
        0x00002bc8:    54524155    UART    DCD    1414676821
        0x00002bcc:    0033        3.      DCW    51
    .L.str.68
        0x00002bce:    4155        UA      DCW    16725
        0x00002bd0:    00345452    RT4.    DCD    3429458
    .L.str.69
        0x00002bd4:    54524155    UART    DCD    1414676821
        0x00002bd8:    0035        5.      DCW    53
    .L.str.18
        0x00002bda:    5047        GP      DCW    20551
        0x00002bdc:    00414f49    IOA.    DCD    4280137
    .L.str.27
        0x00002be0:    4150        PA      DCW    16720
        0x00002be2:    00          .       DCB    0
    .L.str.19
        0x00002be3:    47          G       DCB    71
        0x00002be4:    424f4950    PIOB    DCD    1112492368
        0x00002be8:    00          .       DCB    0
    .L.str.28
        0x00002be9:    504200      PB.     DCB    80,66,0
    .L.str.47
        0x00002bec:    43444145    EADC    DCD    1128546629
        0x00002bf0:    00          .       DCB    0
    .L.str.20
        0x00002bf1:    475049      GPI     DCB    71,80,73
        0x00002bf4:    434f        OC      DCW    17231
        0x00002bf6:    00          .       DCB    0
    .L.str.29
        0x00002bf7:    50          P       DCB    80
        0x00002bf8:    0043        C.      DCW    67
    .L.str.46
        0x00002bfa:    5452        RT      DCW    21586
        0x00002bfc:    0043        C.      DCW    67
    .L.str.82
        0x00002bfe:    5355        US      DCW    21333
        0x00002c00:    4442        BD      DCW    17474
        0x00002c02:    00          .       DCB    0
    .L.str.21
        0x00002c03:    47          G       DCB    71
        0x00002c04:    444f4950    PIOD    DCD    1146046800
        0x00002c08:    00          .       DCB    0
    .L.str.30
        0x00002c09:    504400      PD.     DCB    80,68,0
    .L.str.22
        0x00002c0c:    4f495047    GPIO    DCD    1330204743
        0x00002c10:    0045        E.      DCW    69
    .L.str.31
        0x00002c12:    4550        PE      DCW    17744
        0x00002c14:    00          .       DCB    0
    .L.str.23
        0x00002c15:    475049      GPI     DCB    71,80,73
        0x00002c18:    464f        OF      DCW    17999
        0x00002c1a:    00          .       DCB    0
    .L.str.32
        0x00002c1b:    50          P       DCB    80
        0x00002c1c:    0046        F.      DCW    70
    .L.str.81
        0x00002c1e:    5254        TR      DCW    21076
        0x00002c20:    474e        NG      DCW    18254
        0x00002c22:    00          .       DCB    0
    .L.str.24
        0x00002c23:    47          G       DCB    71
        0x00002c24:    474f4950    PIOG    DCD    1196378448
        0x00002c28:    00          .       DCB    0
    .L.str.33
        0x00002c29:    504700      PG.     DCB    80,71,0
    .L.str.52
        0x00002c2c:    0047544f    OTG.    DCD    4674639
    .L.str.25
        0x00002c30:    4f495047    GPIO    DCD    1330204743
        0x00002c34:    0048        H.      DCW    72
    .L.str.34
        0x00002c36:    4850        PH      DCW    18512
        0x00002c38:    00          .       DCB    0
    .L.str.16
        0x00002c39:    434c4b      CLK     DCB    67,76,75
        0x00002c3c:    00          .       DCB    0
    .L.str.26
        0x00002c3d:    475049      GPI     DCB    71,80,73
        0x00002c40:    42445f4f    O_DB    DCD    1111777103
        0x00002c44:    004c5443    CTL.    DCD    5002307
    .L.str.6
        0x00002c48:    0052444c    LDR.    DCD    5391436
    .L.str.7
        0x00002c4c:    00525453    STR.    DCD    5395539
    .L.str.45
        0x00002c50:    57          W       DCB    87
    .L.str.44
        0x00002c51:    574454      WDT     DCB    87,68,84
        0x00002c54:    00          .       DCB    0
    .L.str.17
        0x00002c55:    494e54      INT     DCB    73,78,84
        0x00002c58:    00          .       DCB    0
    .L.str.12
        0x00002c59:    536563      Sec     DCB    83,101,99
        0x00002c5c:    00657275    ure.    DCD    6648437
    .L.str.11
        0x00002c60:    736e6f4e    Nons    DCD    1936617294
        0x00002c64:    72756365    ecur    DCD    1920295781
        0x00002c68:    00000065    e...    DCD    101
    Region$$Table$$Base
        0x00002c6c:    00002d20     -..    DCD    11552
        0x00002c70:    20000000    ...     DCD    536870912
        0x00002c74:    00000290    ....    DCD    656
        0x00002c78:    000007ec    ....    DCD    2028
        0x00002c7c:    00002ee8    ....    DCD    12008
        0x00002c80:    20000290    ...     DCD    536871568
        0x00002c84:    00001060    `...    DCD    4192
        0x00002c88:    00001e26    &...    DCD    7718
    Region$$Table$$Limit

** Section #2 'NSC_ROM' (SHT_PROGBITS) [SHF_ALLOC + SHF_EXECINSTR + SHF_ARM_PURECODE]
    Size   : 128 bytes (alignment 32)
    Address: 0x00002ca0

    $t
    Secure_LED_Off
        0x00002ca0:    e97fe97f    ....    SG        ; [0x2aa8]
        0x00002ca4:    f7febe1c    ....    B        __acle_se_Secure_LED_Off ; 0x18e0
    Secure_LED_Off_callback
        0x00002ca8:    e97fe97f    ....    SG        ; [0x2ab0]
        0x00002cac:    f7febe32    ..2.    B        __acle_se_Secure_LED_Off_callback ; 0x1914
    Secure_LED_On
        0x00002cb0:    e97fe97f    ....    SG        ; [0x2ab8]
        0x00002cb4:    f7febe40    ..@.    B        __acle_se_Secure_LED_On ; 0x1938
    Secure_LED_On_callback
        0x00002cb8:    e97fe97f    ....    SG        ; [0x2ac0]
        0x00002cbc:    f7febe5a    ..Z.    B        __acle_se_Secure_LED_On_callback ; 0x1974
    Secure_func
        0x00002cc0:    e97fe97f    ....    SG        ; [0x2ac8]
        0x00002cc4:    f7febe68    ..h.    B        __acle_se_Secure_func ; 0x1998
    CLK_GetCPUFreq
        0x00002cc8:    e97fe97f    ....    SG        ; [0x2ad0]
        0x00002ccc:    f7fdbe44    ..D.    B        __acle_se_CLK_GetCPUFreq ; 0x958
    CLK_GetHCLKFreq
        0x00002cd0:    e97fe97f    ....    SG        ; [0x2ad8]
        0x00002cd4:    f7fdbf04    ....    B        __acle_se_CLK_GetHCLKFreq ; 0xae0
    CLK_GetHXTFreq
        0x00002cd8:    e97fe97f    ....    SG        ; [0x2ae0]
        0x00002cdc:    f7fdbf10    ....    B        __acle_se_CLK_GetHXTFreq ; 0xb00
    CLK_GetLXTFreq
        0x00002ce0:    e97fe97f    ....    SG        ; [0x2ae8]
        0x00002ce4:    f7fdbf2a    ..*.    B        __acle_se_CLK_GetLXTFreq ; 0xb3c
    CLK_GetModuleClockDivider
        0x00002ce8:    e97fe97f    ....    SG        ; [0x2af0]
        0x00002cec:    f7fdbf44    ..D.    B        __acle_se_CLK_GetModuleClockDivider ; 0xb78
    CLK_GetModuleClockSource
        0x00002cf0:    e97fe97f    ....    SG        ; [0x2af8]
        0x00002cf4:    f7fdbf76    ..v.    B        __acle_se_CLK_GetModuleClockSource ; 0xbe4
    CLK_GetPCLK0Freq
        0x00002cf8:    e97fe97f    ....    SG        ; [0x2b00]
        0x00002cfc:    f7fdbfe8    ....    B        __acle_se_CLK_GetPCLK0Freq ; 0xcd0
    CLK_GetPCLK1Freq
        0x00002d00:    e97fe97f    ....    SG        ; [0x2b08]
        0x00002d04:    f7fdbff8    ....    B        __acle_se_CLK_GetPCLK1Freq ; 0xcf8
    CLK_GetPLLClockFreq
        0x00002d08:    e97fe97f    ....    SG        ; [0x2b10]
        0x00002d0c:    f7feb80e    ....    B        __acle_se_CLK_GetPLLClockFreq ; 0xd2c
        0x00002d10:    0000        ..      MOVS     r0,r0
        0x00002d12:    0000        ..      MOVS     r0,r0
        0x00002d14:    0000        ..      MOVS     r0,r0
        0x00002d16:    0000        ..      MOVS     r0,r0
        0x00002d18:    0000        ..      MOVS     r0,r0
        0x00002d1a:    0000        ..      MOVS     r0,r0
        0x00002d1c:    0000        ..      MOVS     r0,r0
        0x00002d1e:    0000        ..      MOVS     r0,r0

** Section #3 'EXE_RAM' (SHT_PROGBITS) [SHF_ALLOC + SHF_WRITE]
    Size   : 456 bytes (alignment 8)
    Address: 0x20000000


** Section #4 'EXE_RAM' (SHT_NOBITS) [SHF_ALLOC + SHF_WRITE]
    Size   : 4192 bytes (alignment 8)
    Address: 0x20000290


** Section #5 'XOM0_ROM' (SHT_PROGBITS) [SHF_ALLOC + SHF_EXECINSTR + SHF_ARM_PURECODE]
    Size   : 12 bytes (alignment 2)
    Address: 0x00008000

    $t.0
    XOM0_Func
        0x00008000:    b081        ..      SUB      sp,sp,#4
        0x00008002:    9000        ..      STR      r0,[sp,#0]
        0x00008004:    9800        ..      LDR      r0,[sp,#0]
        0x00008006:    1c40        @.      ADDS     r0,r0,#1
        0x00008008:    b001        ..      ADD      sp,sp,#4
        0x0000800a:    4770        pG      BX       lr

** Section #6 'XOM1_ROM' (SHT_PROGBITS) [SHF_ALLOC + SHF_EXECINSTR + SHF_ARM_PURECODE]
    Size   : 12 bytes (alignment 2)
    Address: 0x00009000

    $t.0
    XOM1_Func
        0x00009000:    b081        ..      SUB      sp,sp,#4
        0x00009002:    9000        ..      STR      r0,[sp,#0]
        0x00009004:    9800        ..      LDR      r0,[sp,#0]
        0x00009006:    1c40        @.      ADDS     r0,r0,#1
        0x00009008:    b001        ..      ADD      sp,sp,#4
        0x0000900a:    4770        pG      BX       lr

** Section #7 '.debug_abbrev' (SHT_PROGBITS)
    Size   : 2045 bytes


** Section #8 '.debug_frame' (SHT_PROGBITS)
    Size   : 2908 bytes


** Section #9 '.debug_info' (SHT_PROGBITS)
    Size   : 15776 bytes


** Section #10 '.debug_line' (SHT_PROGBITS)
    Size   : 8930 bytes


** Section #11 '.debug_str' (SHT_PROGBITS)
    Size   : 10103 bytes


** Section #12 '.debug_ranges' (SHT_PROGBITS)
    Size   : 600 bytes


** Section #13 '.symtab' (SHT_SYMTAB)
    Size   : 10624 bytes (alignment 4)
    String table #14 '.strtab'
    Last local symbol no. 459


** Section #14 '.strtab' (SHT_STRTAB)
    Size   : 7580 bytes


** Section #15 '.note' (SHT_NOTE)
    Size   : 40 bytes (alignment 4)


** Section #16 '.comment' (SHT_PROGBITS)
    Size   : 1252 bytes


** Section #17 '.shstrtab' (SHT_STRTAB)
    Size   : 160 bytes


